
Debug/bin/lcd_libnotmy.elf:     file format elf32-littlearm


Disassembly of section .text:

08000000 <g_pfnVectors>:
 8000000:	94 04 00 20 2d 03 00 08 99 03 00 08 99 03 00 08     ... -...........
 8000010:	99 03 00 08 99 03 00 08 99 03 00 08 00 00 00 00     ................
	...
 800002c:	99 03 00 08 99 03 00 08 00 00 00 00 99 03 00 08     ................
 800003c:	99 03 00 08 99 03 00 08 99 03 00 08 99 03 00 08     ................
 800004c:	99 03 00 08 99 03 00 08 99 03 00 08 99 03 00 08     ................
 800005c:	99 03 00 08 99 03 00 08 99 03 00 08 5d 13 00 08     ............]...
 800006c:	99 03 00 08 99 03 00 08 99 03 00 08 99 03 00 08     ................
 800007c:	99 03 00 08 99 03 00 08 99 03 00 08 99 03 00 08     ................
	...
 800009c:	99 03 00 08 99 03 00 08 99 03 00 08 99 03 00 08     ................
 80000ac:	99 03 00 08 a1 13 00 08 99 03 00 08 99 03 00 08     ................
 80000bc:	99 03 00 08 99 03 00 08 99 03 00 08 99 03 00 08     ................
 80000cc:	99 03 00 08 99 03 00 08 99 03 00 08 99 03 00 08     ................
 80000dc:	99 03 00 08 99 03 00 08 99 03 00 08 99 03 00 08     ................
	...
 8000118:	99 03 00 08 99 03 00 08 5f f8 08 f1                 ........_...

08000124 <TIM_TimeBaseInit>:
 8000124:	b480      	push	{r7}
 8000126:	b085      	sub	sp, #20
 8000128:	af00      	add	r7, sp, #0
 800012a:	6078      	str	r0, [r7, #4]
 800012c:	6039      	str	r1, [r7, #0]
 800012e:	f04f 0300 	mov.w	r3, #0
 8000132:	81fb      	strh	r3, [r7, #14]
 8000134:	687b      	ldr	r3, [r7, #4]
 8000136:	881b      	ldrh	r3, [r3, #0]
 8000138:	81fb      	strh	r3, [r7, #14]
 800013a:	687a      	ldr	r2, [r7, #4]
 800013c:	f44f 5330 	mov.w	r3, #11264	; 0x2c00
 8000140:	f2c4 0301 	movt	r3, #16385	; 0x4001
 8000144:	429a      	cmp	r2, r3
 8000146:	d01f      	beq.n	8000188 <TIM_TimeBaseInit+0x64>
 8000148:	687a      	ldr	r2, [r7, #4]
 800014a:	f44f 5350 	mov.w	r3, #13312	; 0x3400
 800014e:	f2c4 0301 	movt	r3, #16385	; 0x4001
 8000152:	429a      	cmp	r2, r3
 8000154:	d018      	beq.n	8000188 <TIM_TimeBaseInit+0x64>
 8000156:	687b      	ldr	r3, [r7, #4]
 8000158:	f1b3 4f80 	cmp.w	r3, #1073741824	; 0x40000000
 800015c:	d014      	beq.n	8000188 <TIM_TimeBaseInit+0x64>
 800015e:	687a      	ldr	r2, [r7, #4]
 8000160:	f44f 6380 	mov.w	r3, #1024	; 0x400
 8000164:	f2c4 0300 	movt	r3, #16384	; 0x4000
 8000168:	429a      	cmp	r2, r3
 800016a:	d00d      	beq.n	8000188 <TIM_TimeBaseInit+0x64>
 800016c:	687a      	ldr	r2, [r7, #4]
 800016e:	f44f 6300 	mov.w	r3, #2048	; 0x800
 8000172:	f2c4 0300 	movt	r3, #16384	; 0x4000
 8000176:	429a      	cmp	r2, r3
 8000178:	d006      	beq.n	8000188 <TIM_TimeBaseInit+0x64>
 800017a:	687a      	ldr	r2, [r7, #4]
 800017c:	f44f 6340 	mov.w	r3, #3072	; 0xc00
 8000180:	f2c4 0300 	movt	r3, #16384	; 0x4000
 8000184:	429a      	cmp	r2, r3
 8000186:	d108      	bne.n	800019a <TIM_TimeBaseInit+0x76>
 8000188:	89fb      	ldrh	r3, [r7, #14]
 800018a:	f023 0370 	bic.w	r3, r3, #112	; 0x70
 800018e:	81fb      	strh	r3, [r7, #14]
 8000190:	683b      	ldr	r3, [r7, #0]
 8000192:	885a      	ldrh	r2, [r3, #2]
 8000194:	89fb      	ldrh	r3, [r7, #14]
 8000196:	4313      	orrs	r3, r2
 8000198:	81fb      	strh	r3, [r7, #14]
 800019a:	687a      	ldr	r2, [r7, #4]
 800019c:	f44f 5380 	mov.w	r3, #4096	; 0x1000
 80001a0:	f2c4 0300 	movt	r3, #16384	; 0x4000
 80001a4:	429a      	cmp	r2, r3
 80001a6:	d00f      	beq.n	80001c8 <TIM_TimeBaseInit+0xa4>
 80001a8:	687a      	ldr	r2, [r7, #4]
 80001aa:	f44f 53a0 	mov.w	r3, #5120	; 0x1400
 80001ae:	f2c4 0300 	movt	r3, #16384	; 0x4000
 80001b2:	429a      	cmp	r2, r3
 80001b4:	d008      	beq.n	80001c8 <TIM_TimeBaseInit+0xa4>
 80001b6:	89fb      	ldrh	r3, [r7, #14]
 80001b8:	f423 7340 	bic.w	r3, r3, #768	; 0x300
 80001bc:	81fb      	strh	r3, [r7, #14]
 80001be:	683b      	ldr	r3, [r7, #0]
 80001c0:	88da      	ldrh	r2, [r3, #6]
 80001c2:	89fb      	ldrh	r3, [r7, #14]
 80001c4:	4313      	orrs	r3, r2
 80001c6:	81fb      	strh	r3, [r7, #14]
 80001c8:	687b      	ldr	r3, [r7, #4]
 80001ca:	89fa      	ldrh	r2, [r7, #14]
 80001cc:	801a      	strh	r2, [r3, #0]
 80001ce:	683b      	ldr	r3, [r7, #0]
 80001d0:	889a      	ldrh	r2, [r3, #4]
 80001d2:	687b      	ldr	r3, [r7, #4]
 80001d4:	859a      	strh	r2, [r3, #44]	; 0x2c
 80001d6:	683b      	ldr	r3, [r7, #0]
 80001d8:	881a      	ldrh	r2, [r3, #0]
 80001da:	687b      	ldr	r3, [r7, #4]
 80001dc:	851a      	strh	r2, [r3, #40]	; 0x28
 80001de:	687a      	ldr	r2, [r7, #4]
 80001e0:	f44f 5330 	mov.w	r3, #11264	; 0x2c00
 80001e4:	f2c4 0301 	movt	r3, #16385	; 0x4001
 80001e8:	429a      	cmp	r2, r3
 80001ea:	d01b      	beq.n	8000224 <TIM_TimeBaseInit+0x100>
 80001ec:	687a      	ldr	r2, [r7, #4]
 80001ee:	f44f 5350 	mov.w	r3, #13312	; 0x3400
 80001f2:	f2c4 0301 	movt	r3, #16385	; 0x4001
 80001f6:	429a      	cmp	r2, r3
 80001f8:	d014      	beq.n	8000224 <TIM_TimeBaseInit+0x100>
 80001fa:	687a      	ldr	r2, [r7, #4]
 80001fc:	f44f 4380 	mov.w	r3, #16384	; 0x4000
 8000200:	f2c4 0301 	movt	r3, #16385	; 0x4001
 8000204:	429a      	cmp	r2, r3
 8000206:	d00d      	beq.n	8000224 <TIM_TimeBaseInit+0x100>
 8000208:	687a      	ldr	r2, [r7, #4]
 800020a:	f44f 4388 	mov.w	r3, #17408	; 0x4400
 800020e:	f2c4 0301 	movt	r3, #16385	; 0x4001
 8000212:	429a      	cmp	r2, r3
 8000214:	d006      	beq.n	8000224 <TIM_TimeBaseInit+0x100>
 8000216:	687a      	ldr	r2, [r7, #4]
 8000218:	f44f 4390 	mov.w	r3, #18432	; 0x4800
 800021c:	f2c4 0301 	movt	r3, #16385	; 0x4001
 8000220:	429a      	cmp	r2, r3
 8000222:	d104      	bne.n	800022e <TIM_TimeBaseInit+0x10a>
 8000224:	683b      	ldr	r3, [r7, #0]
 8000226:	7a1b      	ldrb	r3, [r3, #8]
 8000228:	461a      	mov	r2, r3
 800022a:	687b      	ldr	r3, [r7, #4]
 800022c:	861a      	strh	r2, [r3, #48]	; 0x30
 800022e:	687b      	ldr	r3, [r7, #4]
 8000230:	f04f 0201 	mov.w	r2, #1
 8000234:	829a      	strh	r2, [r3, #20]
 8000236:	f107 0714 	add.w	r7, r7, #20
 800023a:	46bd      	mov	sp, r7
 800023c:	bc80      	pop	{r7}
 800023e:	4770      	bx	lr

08000240 <TIM_Cmd>:
 8000240:	b480      	push	{r7}
 8000242:	b083      	sub	sp, #12
 8000244:	af00      	add	r7, sp, #0
 8000246:	6078      	str	r0, [r7, #4]
 8000248:	460b      	mov	r3, r1
 800024a:	70fb      	strb	r3, [r7, #3]
 800024c:	78fb      	ldrb	r3, [r7, #3]
 800024e:	2b00      	cmp	r3, #0
 8000250:	d008      	beq.n	8000264 <TIM_Cmd+0x24>
 8000252:	687b      	ldr	r3, [r7, #4]
 8000254:	881b      	ldrh	r3, [r3, #0]
 8000256:	b29b      	uxth	r3, r3
 8000258:	f043 0301 	orr.w	r3, r3, #1
 800025c:	b29a      	uxth	r2, r3
 800025e:	687b      	ldr	r3, [r7, #4]
 8000260:	801a      	strh	r2, [r3, #0]
 8000262:	e007      	b.n	8000274 <TIM_Cmd+0x34>
 8000264:	687b      	ldr	r3, [r7, #4]
 8000266:	881b      	ldrh	r3, [r3, #0]
 8000268:	b29b      	uxth	r3, r3
 800026a:	f023 0301 	bic.w	r3, r3, #1
 800026e:	b29a      	uxth	r2, r3
 8000270:	687b      	ldr	r3, [r7, #4]
 8000272:	801a      	strh	r2, [r3, #0]
 8000274:	f107 070c 	add.w	r7, r7, #12
 8000278:	46bd      	mov	sp, r7
 800027a:	bc80      	pop	{r7}
 800027c:	4770      	bx	lr
 800027e:	bf00      	nop

08000280 <TIM_ITConfig>:
 8000280:	b480      	push	{r7}
 8000282:	b083      	sub	sp, #12
 8000284:	af00      	add	r7, sp, #0
 8000286:	6078      	str	r0, [r7, #4]
 8000288:	4613      	mov	r3, r2
 800028a:	460a      	mov	r2, r1
 800028c:	807a      	strh	r2, [r7, #2]
 800028e:	707b      	strb	r3, [r7, #1]
 8000290:	787b      	ldrb	r3, [r7, #1]
 8000292:	2b00      	cmp	r3, #0
 8000294:	d008      	beq.n	80002a8 <TIM_ITConfig+0x28>
 8000296:	687b      	ldr	r3, [r7, #4]
 8000298:	899b      	ldrh	r3, [r3, #12]
 800029a:	b29a      	uxth	r2, r3
 800029c:	887b      	ldrh	r3, [r7, #2]
 800029e:	4313      	orrs	r3, r2
 80002a0:	b29a      	uxth	r2, r3
 80002a2:	687b      	ldr	r3, [r7, #4]
 80002a4:	819a      	strh	r2, [r3, #12]
 80002a6:	e00a      	b.n	80002be <TIM_ITConfig+0x3e>
 80002a8:	687b      	ldr	r3, [r7, #4]
 80002aa:	899b      	ldrh	r3, [r3, #12]
 80002ac:	b29a      	uxth	r2, r3
 80002ae:	887b      	ldrh	r3, [r7, #2]
 80002b0:	ea6f 0303 	mvn.w	r3, r3
 80002b4:	b29b      	uxth	r3, r3
 80002b6:	4013      	ands	r3, r2
 80002b8:	b29a      	uxth	r2, r3
 80002ba:	687b      	ldr	r3, [r7, #4]
 80002bc:	819a      	strh	r2, [r3, #12]
 80002be:	f107 070c 	add.w	r7, r7, #12
 80002c2:	46bd      	mov	sp, r7
 80002c4:	bc80      	pop	{r7}
 80002c6:	4770      	bx	lr

080002c8 <TIM_ARRPreloadConfig>:
 80002c8:	b480      	push	{r7}
 80002ca:	b083      	sub	sp, #12
 80002cc:	af00      	add	r7, sp, #0
 80002ce:	6078      	str	r0, [r7, #4]
 80002d0:	460b      	mov	r3, r1
 80002d2:	70fb      	strb	r3, [r7, #3]
 80002d4:	78fb      	ldrb	r3, [r7, #3]
 80002d6:	2b00      	cmp	r3, #0
 80002d8:	d008      	beq.n	80002ec <TIM_ARRPreloadConfig+0x24>
 80002da:	687b      	ldr	r3, [r7, #4]
 80002dc:	881b      	ldrh	r3, [r3, #0]
 80002de:	b29b      	uxth	r3, r3
 80002e0:	f043 0380 	orr.w	r3, r3, #128	; 0x80
 80002e4:	b29a      	uxth	r2, r3
 80002e6:	687b      	ldr	r3, [r7, #4]
 80002e8:	801a      	strh	r2, [r3, #0]
 80002ea:	e007      	b.n	80002fc <TIM_ARRPreloadConfig+0x34>
 80002ec:	687b      	ldr	r3, [r7, #4]
 80002ee:	881b      	ldrh	r3, [r3, #0]
 80002f0:	b29b      	uxth	r3, r3
 80002f2:	f023 0380 	bic.w	r3, r3, #128	; 0x80
 80002f6:	b29a      	uxth	r2, r3
 80002f8:	687b      	ldr	r3, [r7, #4]
 80002fa:	801a      	strh	r2, [r3, #0]
 80002fc:	f107 070c 	add.w	r7, r7, #12
 8000300:	46bd      	mov	sp, r7
 8000302:	bc80      	pop	{r7}
 8000304:	4770      	bx	lr
 8000306:	bf00      	nop

08000308 <TIM_ClearITPendingBit>:
 8000308:	b480      	push	{r7}
 800030a:	b083      	sub	sp, #12
 800030c:	af00      	add	r7, sp, #0
 800030e:	6078      	str	r0, [r7, #4]
 8000310:	460b      	mov	r3, r1
 8000312:	807b      	strh	r3, [r7, #2]
 8000314:	887b      	ldrh	r3, [r7, #2]
 8000316:	ea6f 0303 	mvn.w	r3, r3
 800031a:	b29a      	uxth	r2, r3
 800031c:	687b      	ldr	r3, [r7, #4]
 800031e:	821a      	strh	r2, [r3, #16]
 8000320:	f107 070c 	add.w	r7, r7, #12
 8000324:	46bd      	mov	sp, r7
 8000326:	bc80      	pop	{r7}
 8000328:	4770      	bx	lr
 800032a:	bf00      	nop

0800032c <Default_Reset_Handler>:
 800032c:	b580      	push	{r7, lr}
 800032e:	b082      	sub	sp, #8
 8000330:	af00      	add	r7, sp, #0
 8000332:	f242 2344 	movw	r3, #8772	; 0x2244
 8000336:	f6c0 0300 	movt	r3, #2048	; 0x800
 800033a:	607b      	str	r3, [r7, #4]
 800033c:	f240 0300 	movw	r3, #0
 8000340:	f2c2 0300 	movt	r3, #8192	; 0x2000
 8000344:	603b      	str	r3, [r7, #0]
 8000346:	e00b      	b.n	8000360 <Default_Reset_Handler+0x34>
 8000348:	687b      	ldr	r3, [r7, #4]
 800034a:	681a      	ldr	r2, [r3, #0]
 800034c:	683b      	ldr	r3, [r7, #0]
 800034e:	601a      	str	r2, [r3, #0]
 8000350:	683b      	ldr	r3, [r7, #0]
 8000352:	f103 0304 	add.w	r3, r3, #4
 8000356:	603b      	str	r3, [r7, #0]
 8000358:	687b      	ldr	r3, [r7, #4]
 800035a:	f103 0304 	add.w	r3, r3, #4
 800035e:	607b      	str	r3, [r7, #4]
 8000360:	683a      	ldr	r2, [r7, #0]
 8000362:	f240 036c 	movw	r3, #108	; 0x6c
 8000366:	f2c2 0300 	movt	r3, #8192	; 0x2000
 800036a:	429a      	cmp	r2, r3
 800036c:	d3ec      	bcc.n	8000348 <Default_Reset_Handler+0x1c>
 800036e:	4808      	ldr	r0, [pc, #32]	; (8000390 <zero_loop+0x1a>)
 8000370:	4908      	ldr	r1, [pc, #32]	; (8000394 <zero_loop+0x1e>)
 8000372:	f04f 0200 	mov.w	r2, #0

08000376 <zero_loop>:
 8000376:	4288      	cmp	r0, r1
 8000378:	bfb8      	it	lt
 800037a:	f840 2b04 	strlt.w	r2, [r0], #4
 800037e:	dbfa      	blt.n	8000376 <zero_loop>
 8000380:	f000 f80e 	bl	80003a0 <SystemInit>
 8000384:	f000 fe4e 	bl	8001024 <main>
 8000388:	f107 0708 	add.w	r7, r7, #8
 800038c:	46bd      	mov	sp, r7
 800038e:	bd80      	pop	{r7, pc}
 8000390:	2000006c 	.word	0x2000006c
 8000394:	20000098 	.word	0x20000098

08000398 <ADC1_IRQHandler>:
 8000398:	b480      	push	{r7}
 800039a:	af00      	add	r7, sp, #0
 800039c:	e7fe      	b.n	800039c <ADC1_IRQHandler+0x4>
 800039e:	bf00      	nop

080003a0 <SystemInit>:
 80003a0:	b580      	push	{r7, lr}
 80003a2:	af00      	add	r7, sp, #0
 80003a4:	f44f 5380 	mov.w	r3, #4096	; 0x1000
 80003a8:	f2c4 0302 	movt	r3, #16386	; 0x4002
 80003ac:	f44f 5280 	mov.w	r2, #4096	; 0x1000
 80003b0:	f2c4 0202 	movt	r2, #16386	; 0x4002
 80003b4:	6812      	ldr	r2, [r2, #0]
 80003b6:	f042 0201 	orr.w	r2, r2, #1
 80003ba:	601a      	str	r2, [r3, #0]
 80003bc:	f44f 5280 	mov.w	r2, #4096	; 0x1000
 80003c0:	f2c4 0202 	movt	r2, #16386	; 0x4002
 80003c4:	f44f 5380 	mov.w	r3, #4096	; 0x1000
 80003c8:	f2c4 0302 	movt	r3, #16386	; 0x4002
 80003cc:	685b      	ldr	r3, [r3, #4]
 80003ce:	4619      	mov	r1, r3
 80003d0:	f04f 0300 	mov.w	r3, #0
 80003d4:	f6cf 03ff 	movt	r3, #63743	; 0xf8ff
 80003d8:	400b      	ands	r3, r1
 80003da:	6053      	str	r3, [r2, #4]
 80003dc:	f44f 5380 	mov.w	r3, #4096	; 0x1000
 80003e0:	f2c4 0302 	movt	r3, #16386	; 0x4002
 80003e4:	f44f 5280 	mov.w	r2, #4096	; 0x1000
 80003e8:	f2c4 0202 	movt	r2, #16386	; 0x4002
 80003ec:	6812      	ldr	r2, [r2, #0]
 80003ee:	f022 7284 	bic.w	r2, r2, #17301504	; 0x1080000
 80003f2:	f422 3280 	bic.w	r2, r2, #65536	; 0x10000
 80003f6:	601a      	str	r2, [r3, #0]
 80003f8:	f44f 5380 	mov.w	r3, #4096	; 0x1000
 80003fc:	f2c4 0302 	movt	r3, #16386	; 0x4002
 8000400:	f44f 5280 	mov.w	r2, #4096	; 0x1000
 8000404:	f2c4 0202 	movt	r2, #16386	; 0x4002
 8000408:	6812      	ldr	r2, [r2, #0]
 800040a:	f422 2280 	bic.w	r2, r2, #262144	; 0x40000
 800040e:	601a      	str	r2, [r3, #0]
 8000410:	f44f 5380 	mov.w	r3, #4096	; 0x1000
 8000414:	f2c4 0302 	movt	r3, #16386	; 0x4002
 8000418:	f44f 5280 	mov.w	r2, #4096	; 0x1000
 800041c:	f2c4 0202 	movt	r2, #16386	; 0x4002
 8000420:	6852      	ldr	r2, [r2, #4]
 8000422:	f422 02fe 	bic.w	r2, r2, #8323072	; 0x7f0000
 8000426:	605a      	str	r2, [r3, #4]
 8000428:	f44f 5380 	mov.w	r3, #4096	; 0x1000
 800042c:	f2c4 0302 	movt	r3, #16386	; 0x4002
 8000430:	f44f 021f 	mov.w	r2, #10420224	; 0x9f0000
 8000434:	609a      	str	r2, [r3, #8]
 8000436:	f44f 5380 	mov.w	r3, #4096	; 0x1000
 800043a:	f2c4 0302 	movt	r3, #16386	; 0x4002
 800043e:	f04f 0200 	mov.w	r2, #0
 8000442:	62da      	str	r2, [r3, #44]	; 0x2c
 8000444:	f000 f808 	bl	8000458 <SetSysClock>
 8000448:	f44f 436d 	mov.w	r3, #60672	; 0xed00
 800044c:	f2ce 0300 	movt	r3, #57344	; 0xe000
 8000450:	f04f 6200 	mov.w	r2, #134217728	; 0x8000000
 8000454:	609a      	str	r2, [r3, #8]
 8000456:	bd80      	pop	{r7, pc}

08000458 <SetSysClock>:
 8000458:	b580      	push	{r7, lr}
 800045a:	af00      	add	r7, sp, #0
 800045c:	f000 f802 	bl	8000464 <SetSysClockTo24>
 8000460:	bd80      	pop	{r7, pc}
 8000462:	bf00      	nop

08000464 <SetSysClockTo24>:
 8000464:	b480      	push	{r7}
 8000466:	b083      	sub	sp, #12
 8000468:	af00      	add	r7, sp, #0
 800046a:	f04f 0300 	mov.w	r3, #0
 800046e:	607b      	str	r3, [r7, #4]
 8000470:	f04f 0300 	mov.w	r3, #0
 8000474:	603b      	str	r3, [r7, #0]
 8000476:	f44f 5380 	mov.w	r3, #4096	; 0x1000
 800047a:	f2c4 0302 	movt	r3, #16386	; 0x4002
 800047e:	f44f 5280 	mov.w	r2, #4096	; 0x1000
 8000482:	f2c4 0202 	movt	r2, #16386	; 0x4002
 8000486:	6812      	ldr	r2, [r2, #0]
 8000488:	f442 3280 	orr.w	r2, r2, #65536	; 0x10000
 800048c:	601a      	str	r2, [r3, #0]
 800048e:	f44f 5380 	mov.w	r3, #4096	; 0x1000
 8000492:	f2c4 0302 	movt	r3, #16386	; 0x4002
 8000496:	681b      	ldr	r3, [r3, #0]
 8000498:	f403 3300 	and.w	r3, r3, #131072	; 0x20000
 800049c:	603b      	str	r3, [r7, #0]
 800049e:	687b      	ldr	r3, [r7, #4]
 80004a0:	f103 0301 	add.w	r3, r3, #1
 80004a4:	607b      	str	r3, [r7, #4]
 80004a6:	683b      	ldr	r3, [r7, #0]
 80004a8:	2b00      	cmp	r3, #0
 80004aa:	d103      	bne.n	80004b4 <SetSysClockTo24+0x50>
 80004ac:	687b      	ldr	r3, [r7, #4]
 80004ae:	f5b3 6fa0 	cmp.w	r3, #1280	; 0x500
 80004b2:	d1ec      	bne.n	800048e <SetSysClockTo24+0x2a>
 80004b4:	f44f 5380 	mov.w	r3, #4096	; 0x1000
 80004b8:	f2c4 0302 	movt	r3, #16386	; 0x4002
 80004bc:	681b      	ldr	r3, [r3, #0]
 80004be:	f403 3300 	and.w	r3, r3, #131072	; 0x20000
 80004c2:	2b00      	cmp	r3, #0
 80004c4:	d003      	beq.n	80004ce <SetSysClockTo24+0x6a>
 80004c6:	f04f 0301 	mov.w	r3, #1
 80004ca:	603b      	str	r3, [r7, #0]
 80004cc:	e002      	b.n	80004d4 <SetSysClockTo24+0x70>
 80004ce:	f04f 0300 	mov.w	r3, #0
 80004d2:	603b      	str	r3, [r7, #0]
 80004d4:	683b      	ldr	r3, [r7, #0]
 80004d6:	2b01      	cmp	r3, #1
 80004d8:	d16d      	bne.n	80005b6 <SetSysClockTo24+0x152>
 80004da:	f44f 5380 	mov.w	r3, #4096	; 0x1000
 80004de:	f2c4 0302 	movt	r3, #16386	; 0x4002
 80004e2:	f44f 5280 	mov.w	r2, #4096	; 0x1000
 80004e6:	f2c4 0202 	movt	r2, #16386	; 0x4002
 80004ea:	6852      	ldr	r2, [r2, #4]
 80004ec:	605a      	str	r2, [r3, #4]
 80004ee:	f44f 5380 	mov.w	r3, #4096	; 0x1000
 80004f2:	f2c4 0302 	movt	r3, #16386	; 0x4002
 80004f6:	f44f 5280 	mov.w	r2, #4096	; 0x1000
 80004fa:	f2c4 0202 	movt	r2, #16386	; 0x4002
 80004fe:	6852      	ldr	r2, [r2, #4]
 8000500:	605a      	str	r2, [r3, #4]
 8000502:	f44f 5380 	mov.w	r3, #4096	; 0x1000
 8000506:	f2c4 0302 	movt	r3, #16386	; 0x4002
 800050a:	f44f 5280 	mov.w	r2, #4096	; 0x1000
 800050e:	f2c4 0202 	movt	r2, #16386	; 0x4002
 8000512:	6852      	ldr	r2, [r2, #4]
 8000514:	605a      	str	r2, [r3, #4]
 8000516:	f44f 5380 	mov.w	r3, #4096	; 0x1000
 800051a:	f2c4 0302 	movt	r3, #16386	; 0x4002
 800051e:	f44f 5280 	mov.w	r2, #4096	; 0x1000
 8000522:	f2c4 0202 	movt	r2, #16386	; 0x4002
 8000526:	6852      	ldr	r2, [r2, #4]
 8000528:	f422 127c 	bic.w	r2, r2, #4128768	; 0x3f0000
 800052c:	605a      	str	r2, [r3, #4]
 800052e:	f44f 5380 	mov.w	r3, #4096	; 0x1000
 8000532:	f2c4 0302 	movt	r3, #16386	; 0x4002
 8000536:	f44f 5280 	mov.w	r2, #4096	; 0x1000
 800053a:	f2c4 0202 	movt	r2, #16386	; 0x4002
 800053e:	6852      	ldr	r2, [r2, #4]
 8000540:	f442 1298 	orr.w	r2, r2, #1245184	; 0x130000
 8000544:	605a      	str	r2, [r3, #4]
 8000546:	f44f 5380 	mov.w	r3, #4096	; 0x1000
 800054a:	f2c4 0302 	movt	r3, #16386	; 0x4002
 800054e:	f44f 5280 	mov.w	r2, #4096	; 0x1000
 8000552:	f2c4 0202 	movt	r2, #16386	; 0x4002
 8000556:	6812      	ldr	r2, [r2, #0]
 8000558:	f042 7280 	orr.w	r2, r2, #16777216	; 0x1000000
 800055c:	601a      	str	r2, [r3, #0]
 800055e:	bf00      	nop
 8000560:	f44f 5380 	mov.w	r3, #4096	; 0x1000
 8000564:	f2c4 0302 	movt	r3, #16386	; 0x4002
 8000568:	681b      	ldr	r3, [r3, #0]
 800056a:	f003 7300 	and.w	r3, r3, #33554432	; 0x2000000
 800056e:	2b00      	cmp	r3, #0
 8000570:	d0f6      	beq.n	8000560 <SetSysClockTo24+0xfc>
 8000572:	f44f 5380 	mov.w	r3, #4096	; 0x1000
 8000576:	f2c4 0302 	movt	r3, #16386	; 0x4002
 800057a:	f44f 5280 	mov.w	r2, #4096	; 0x1000
 800057e:	f2c4 0202 	movt	r2, #16386	; 0x4002
 8000582:	6852      	ldr	r2, [r2, #4]
 8000584:	f022 0203 	bic.w	r2, r2, #3
 8000588:	605a      	str	r2, [r3, #4]
 800058a:	f44f 5380 	mov.w	r3, #4096	; 0x1000
 800058e:	f2c4 0302 	movt	r3, #16386	; 0x4002
 8000592:	f44f 5280 	mov.w	r2, #4096	; 0x1000
 8000596:	f2c4 0202 	movt	r2, #16386	; 0x4002
 800059a:	6852      	ldr	r2, [r2, #4]
 800059c:	f042 0202 	orr.w	r2, r2, #2
 80005a0:	605a      	str	r2, [r3, #4]
 80005a2:	bf00      	nop
 80005a4:	f44f 5380 	mov.w	r3, #4096	; 0x1000
 80005a8:	f2c4 0302 	movt	r3, #16386	; 0x4002
 80005ac:	685b      	ldr	r3, [r3, #4]
 80005ae:	f003 030c 	and.w	r3, r3, #12
 80005b2:	2b08      	cmp	r3, #8
 80005b4:	d1f6      	bne.n	80005a4 <SetSysClockTo24+0x140>
 80005b6:	f107 070c 	add.w	r7, r7, #12
 80005ba:	46bd      	mov	sp, r7
 80005bc:	bc80      	pop	{r7}
 80005be:	4770      	bx	lr

080005c0 <RussianFont>:
 80005c0:	b480      	push	{r7}
 80005c2:	b083      	sub	sp, #12
 80005c4:	af00      	add	r7, sp, #0
 80005c6:	4603      	mov	r3, r0
 80005c8:	71fb      	strb	r3, [r7, #7]
 80005ca:	79fb      	ldrb	r3, [r7, #7]
 80005cc:	f1a3 03a8 	sub.w	r3, r3, #168	; 0xa8
 80005d0:	2b57      	cmp	r3, #87	; 0x57
 80005d2:	f200 81bb 	bhi.w	800094c <RussianFont+0x38c>
 80005d6:	a201      	add	r2, pc, #4	; (adr r2, 80005dc <RussianFont+0x1c>)
 80005d8:	f852 f023 	ldr.w	pc, [r2, r3, lsl #2]
 80005dc:	0800076d 	.word	0x0800076d
 80005e0:	0800094d 	.word	0x0800094d
 80005e4:	0800094d 	.word	0x0800094d
 80005e8:	0800094d 	.word	0x0800094d
 80005ec:	0800094d 	.word	0x0800094d
 80005f0:	0800094d 	.word	0x0800094d
 80005f4:	0800094d 	.word	0x0800094d
 80005f8:	0800094d 	.word	0x0800094d
 80005fc:	0800094d 	.word	0x0800094d
 8000600:	0800094d 	.word	0x0800094d
 8000604:	0800094d 	.word	0x0800094d
 8000608:	0800094d 	.word	0x0800094d
 800060c:	0800094d 	.word	0x0800094d
 8000610:	0800094d 	.word	0x0800094d
 8000614:	0800094d 	.word	0x0800094d
 8000618:	0800094d 	.word	0x0800094d
 800061c:	08000875 	.word	0x08000875
 8000620:	0800094d 	.word	0x0800094d
 8000624:	0800094d 	.word	0x0800094d
 8000628:	0800094d 	.word	0x0800094d
 800062c:	0800094d 	.word	0x0800094d
 8000630:	0800094d 	.word	0x0800094d
 8000634:	0800094d 	.word	0x0800094d
 8000638:	0800094d 	.word	0x0800094d
 800063c:	0800073d 	.word	0x0800073d
 8000640:	08000745 	.word	0x08000745
 8000644:	0800074d 	.word	0x0800074d
 8000648:	08000755 	.word	0x08000755
 800064c:	0800075d 	.word	0x0800075d
 8000650:	08000765 	.word	0x08000765
 8000654:	08000775 	.word	0x08000775
 8000658:	0800077d 	.word	0x0800077d
 800065c:	08000785 	.word	0x08000785
 8000660:	0800078d 	.word	0x0800078d
 8000664:	08000795 	.word	0x08000795
 8000668:	0800079d 	.word	0x0800079d
 800066c:	080007a5 	.word	0x080007a5
 8000670:	080007ad 	.word	0x080007ad
 8000674:	080007b5 	.word	0x080007b5
 8000678:	080007bd 	.word	0x080007bd
 800067c:	080007c5 	.word	0x080007c5
 8000680:	080007cd 	.word	0x080007cd
 8000684:	080007d5 	.word	0x080007d5
 8000688:	080007dd 	.word	0x080007dd
 800068c:	080007e5 	.word	0x080007e5
 8000690:	080007ed 	.word	0x080007ed
 8000694:	080007f5 	.word	0x080007f5
 8000698:	080007fd 	.word	0x080007fd
 800069c:	08000805 	.word	0x08000805
 80006a0:	0800080d 	.word	0x0800080d
 80006a4:	08000815 	.word	0x08000815
 80006a8:	0800081d 	.word	0x0800081d
 80006ac:	08000825 	.word	0x08000825
 80006b0:	0800082d 	.word	0x0800082d
 80006b4:	08000835 	.word	0x08000835
 80006b8:	0800083d 	.word	0x0800083d
 80006bc:	08000845 	.word	0x08000845
 80006c0:	0800084d 	.word	0x0800084d
 80006c4:	08000855 	.word	0x08000855
 80006c8:	0800085d 	.word	0x0800085d
 80006cc:	08000865 	.word	0x08000865
 80006d0:	0800086d 	.word	0x0800086d
 80006d4:	0800087d 	.word	0x0800087d
 80006d8:	08000885 	.word	0x08000885
 80006dc:	0800088d 	.word	0x0800088d
 80006e0:	08000895 	.word	0x08000895
 80006e4:	0800089d 	.word	0x0800089d
 80006e8:	080008a5 	.word	0x080008a5
 80006ec:	080008ad 	.word	0x080008ad
 80006f0:	080008b5 	.word	0x080008b5
 80006f4:	080008bd 	.word	0x080008bd
 80006f8:	080008c5 	.word	0x080008c5
 80006fc:	080008cd 	.word	0x080008cd
 8000700:	080008d5 	.word	0x080008d5
 8000704:	080008dd 	.word	0x080008dd
 8000708:	080008e5 	.word	0x080008e5
 800070c:	080008ed 	.word	0x080008ed
 8000710:	080008f5 	.word	0x080008f5
 8000714:	080008fd 	.word	0x080008fd
 8000718:	08000905 	.word	0x08000905
 800071c:	0800090d 	.word	0x0800090d
 8000720:	08000915 	.word	0x08000915
 8000724:	0800091d 	.word	0x0800091d
 8000728:	08000925 	.word	0x08000925
 800072c:	0800092d 	.word	0x0800092d
 8000730:	08000935 	.word	0x08000935
 8000734:	0800093d 	.word	0x0800093d
 8000738:	08000945 	.word	0x08000945
 800073c:	f04f 0341 	mov.w	r3, #65	; 0x41
 8000740:	71fb      	strb	r3, [r7, #7]
 8000742:	e103      	b.n	800094c <RussianFont+0x38c>
 8000744:	f04f 03a0 	mov.w	r3, #160	; 0xa0
 8000748:	71fb      	strb	r3, [r7, #7]
 800074a:	e0ff      	b.n	800094c <RussianFont+0x38c>
 800074c:	f04f 0342 	mov.w	r3, #66	; 0x42
 8000750:	71fb      	strb	r3, [r7, #7]
 8000752:	e0fb      	b.n	800094c <RussianFont+0x38c>
 8000754:	f04f 03a1 	mov.w	r3, #161	; 0xa1
 8000758:	71fb      	strb	r3, [r7, #7]
 800075a:	e0f7      	b.n	800094c <RussianFont+0x38c>
 800075c:	f04f 03e0 	mov.w	r3, #224	; 0xe0
 8000760:	71fb      	strb	r3, [r7, #7]
 8000762:	e0f3      	b.n	800094c <RussianFont+0x38c>
 8000764:	f04f 0345 	mov.w	r3, #69	; 0x45
 8000768:	71fb      	strb	r3, [r7, #7]
 800076a:	e0ef      	b.n	800094c <RussianFont+0x38c>
 800076c:	f04f 03a2 	mov.w	r3, #162	; 0xa2
 8000770:	71fb      	strb	r3, [r7, #7]
 8000772:	e0eb      	b.n	800094c <RussianFont+0x38c>
 8000774:	f04f 03a3 	mov.w	r3, #163	; 0xa3
 8000778:	71fb      	strb	r3, [r7, #7]
 800077a:	e0e7      	b.n	800094c <RussianFont+0x38c>
 800077c:	f04f 03a4 	mov.w	r3, #164	; 0xa4
 8000780:	71fb      	strb	r3, [r7, #7]
 8000782:	e0e3      	b.n	800094c <RussianFont+0x38c>
 8000784:	f04f 03a5 	mov.w	r3, #165	; 0xa5
 8000788:	71fb      	strb	r3, [r7, #7]
 800078a:	e0df      	b.n	800094c <RussianFont+0x38c>
 800078c:	f04f 03a6 	mov.w	r3, #166	; 0xa6
 8000790:	71fb      	strb	r3, [r7, #7]
 8000792:	e0db      	b.n	800094c <RussianFont+0x38c>
 8000794:	f04f 034b 	mov.w	r3, #75	; 0x4b
 8000798:	71fb      	strb	r3, [r7, #7]
 800079a:	e0d7      	b.n	800094c <RussianFont+0x38c>
 800079c:	f04f 03a7 	mov.w	r3, #167	; 0xa7
 80007a0:	71fb      	strb	r3, [r7, #7]
 80007a2:	e0d3      	b.n	800094c <RussianFont+0x38c>
 80007a4:	f04f 034d 	mov.w	r3, #77	; 0x4d
 80007a8:	71fb      	strb	r3, [r7, #7]
 80007aa:	e0cf      	b.n	800094c <RussianFont+0x38c>
 80007ac:	f04f 0348 	mov.w	r3, #72	; 0x48
 80007b0:	71fb      	strb	r3, [r7, #7]
 80007b2:	e0cb      	b.n	800094c <RussianFont+0x38c>
 80007b4:	f04f 034f 	mov.w	r3, #79	; 0x4f
 80007b8:	71fb      	strb	r3, [r7, #7]
 80007ba:	e0c7      	b.n	800094c <RussianFont+0x38c>
 80007bc:	f04f 03a8 	mov.w	r3, #168	; 0xa8
 80007c0:	71fb      	strb	r3, [r7, #7]
 80007c2:	e0c3      	b.n	800094c <RussianFont+0x38c>
 80007c4:	f04f 0350 	mov.w	r3, #80	; 0x50
 80007c8:	71fb      	strb	r3, [r7, #7]
 80007ca:	e0bf      	b.n	800094c <RussianFont+0x38c>
 80007cc:	f04f 0343 	mov.w	r3, #67	; 0x43
 80007d0:	71fb      	strb	r3, [r7, #7]
 80007d2:	e0bb      	b.n	800094c <RussianFont+0x38c>
 80007d4:	f04f 0354 	mov.w	r3, #84	; 0x54
 80007d8:	71fb      	strb	r3, [r7, #7]
 80007da:	e0b7      	b.n	800094c <RussianFont+0x38c>
 80007dc:	f04f 03a9 	mov.w	r3, #169	; 0xa9
 80007e0:	71fb      	strb	r3, [r7, #7]
 80007e2:	e0b3      	b.n	800094c <RussianFont+0x38c>
 80007e4:	f04f 03aa 	mov.w	r3, #170	; 0xaa
 80007e8:	71fb      	strb	r3, [r7, #7]
 80007ea:	e0af      	b.n	800094c <RussianFont+0x38c>
 80007ec:	f04f 0358 	mov.w	r3, #88	; 0x58
 80007f0:	71fb      	strb	r3, [r7, #7]
 80007f2:	e0ab      	b.n	800094c <RussianFont+0x38c>
 80007f4:	f04f 03e1 	mov.w	r3, #225	; 0xe1
 80007f8:	71fb      	strb	r3, [r7, #7]
 80007fa:	e0a7      	b.n	800094c <RussianFont+0x38c>
 80007fc:	f04f 03ab 	mov.w	r3, #171	; 0xab
 8000800:	71fb      	strb	r3, [r7, #7]
 8000802:	e0a3      	b.n	800094c <RussianFont+0x38c>
 8000804:	f04f 03ac 	mov.w	r3, #172	; 0xac
 8000808:	71fb      	strb	r3, [r7, #7]
 800080a:	e09f      	b.n	800094c <RussianFont+0x38c>
 800080c:	f04f 03e2 	mov.w	r3, #226	; 0xe2
 8000810:	71fb      	strb	r3, [r7, #7]
 8000812:	e09b      	b.n	800094c <RussianFont+0x38c>
 8000814:	f04f 03ad 	mov.w	r3, #173	; 0xad
 8000818:	71fb      	strb	r3, [r7, #7]
 800081a:	e097      	b.n	800094c <RussianFont+0x38c>
 800081c:	f04f 03ae 	mov.w	r3, #174	; 0xae
 8000820:	71fb      	strb	r3, [r7, #7]
 8000822:	e093      	b.n	800094c <RussianFont+0x38c>
 8000824:	f04f 0362 	mov.w	r3, #98	; 0x62
 8000828:	71fb      	strb	r3, [r7, #7]
 800082a:	e08f      	b.n	800094c <RussianFont+0x38c>
 800082c:	f04f 03af 	mov.w	r3, #175	; 0xaf
 8000830:	71fb      	strb	r3, [r7, #7]
 8000832:	e08b      	b.n	800094c <RussianFont+0x38c>
 8000834:	f04f 03b0 	mov.w	r3, #176	; 0xb0
 8000838:	71fb      	strb	r3, [r7, #7]
 800083a:	e087      	b.n	800094c <RussianFont+0x38c>
 800083c:	f04f 03b1 	mov.w	r3, #177	; 0xb1
 8000840:	71fb      	strb	r3, [r7, #7]
 8000842:	e083      	b.n	800094c <RussianFont+0x38c>
 8000844:	f04f 0361 	mov.w	r3, #97	; 0x61
 8000848:	71fb      	strb	r3, [r7, #7]
 800084a:	e07f      	b.n	800094c <RussianFont+0x38c>
 800084c:	f04f 03b2 	mov.w	r3, #178	; 0xb2
 8000850:	71fb      	strb	r3, [r7, #7]
 8000852:	e07b      	b.n	800094c <RussianFont+0x38c>
 8000854:	f04f 03b3 	mov.w	r3, #179	; 0xb3
 8000858:	71fb      	strb	r3, [r7, #7]
 800085a:	e077      	b.n	800094c <RussianFont+0x38c>
 800085c:	f04f 03b4 	mov.w	r3, #180	; 0xb4
 8000860:	71fb      	strb	r3, [r7, #7]
 8000862:	e073      	b.n	800094c <RussianFont+0x38c>
 8000864:	f04f 03e3 	mov.w	r3, #227	; 0xe3
 8000868:	71fb      	strb	r3, [r7, #7]
 800086a:	e06f      	b.n	800094c <RussianFont+0x38c>
 800086c:	f04f 0365 	mov.w	r3, #101	; 0x65
 8000870:	71fb      	strb	r3, [r7, #7]
 8000872:	e06b      	b.n	800094c <RussianFont+0x38c>
 8000874:	f04f 03a2 	mov.w	r3, #162	; 0xa2
 8000878:	71fb      	strb	r3, [r7, #7]
 800087a:	e067      	b.n	800094c <RussianFont+0x38c>
 800087c:	f04f 03b6 	mov.w	r3, #182	; 0xb6
 8000880:	71fb      	strb	r3, [r7, #7]
 8000882:	e063      	b.n	800094c <RussianFont+0x38c>
 8000884:	f04f 03b7 	mov.w	r3, #183	; 0xb7
 8000888:	71fb      	strb	r3, [r7, #7]
 800088a:	e05f      	b.n	800094c <RussianFont+0x38c>
 800088c:	f04f 03b8 	mov.w	r3, #184	; 0xb8
 8000890:	71fb      	strb	r3, [r7, #7]
 8000892:	e05b      	b.n	800094c <RussianFont+0x38c>
 8000894:	f04f 03b9 	mov.w	r3, #185	; 0xb9
 8000898:	71fb      	strb	r3, [r7, #7]
 800089a:	e057      	b.n	800094c <RussianFont+0x38c>
 800089c:	f04f 03ba 	mov.w	r3, #186	; 0xba
 80008a0:	71fb      	strb	r3, [r7, #7]
 80008a2:	e053      	b.n	800094c <RussianFont+0x38c>
 80008a4:	f04f 03bb 	mov.w	r3, #187	; 0xbb
 80008a8:	71fb      	strb	r3, [r7, #7]
 80008aa:	e04f      	b.n	800094c <RussianFont+0x38c>
 80008ac:	f04f 03bc 	mov.w	r3, #188	; 0xbc
 80008b0:	71fb      	strb	r3, [r7, #7]
 80008b2:	e04b      	b.n	800094c <RussianFont+0x38c>
 80008b4:	f04f 03bd 	mov.w	r3, #189	; 0xbd
 80008b8:	71fb      	strb	r3, [r7, #7]
 80008ba:	e047      	b.n	800094c <RussianFont+0x38c>
 80008bc:	f04f 036f 	mov.w	r3, #111	; 0x6f
 80008c0:	71fb      	strb	r3, [r7, #7]
 80008c2:	e043      	b.n	800094c <RussianFont+0x38c>
 80008c4:	f04f 03be 	mov.w	r3, #190	; 0xbe
 80008c8:	71fb      	strb	r3, [r7, #7]
 80008ca:	e03f      	b.n	800094c <RussianFont+0x38c>
 80008cc:	f04f 0370 	mov.w	r3, #112	; 0x70
 80008d0:	71fb      	strb	r3, [r7, #7]
 80008d2:	e03b      	b.n	800094c <RussianFont+0x38c>
 80008d4:	f04f 0363 	mov.w	r3, #99	; 0x63
 80008d8:	71fb      	strb	r3, [r7, #7]
 80008da:	e037      	b.n	800094c <RussianFont+0x38c>
 80008dc:	f04f 03bf 	mov.w	r3, #191	; 0xbf
 80008e0:	71fb      	strb	r3, [r7, #7]
 80008e2:	e033      	b.n	800094c <RussianFont+0x38c>
 80008e4:	f04f 0379 	mov.w	r3, #121	; 0x79
 80008e8:	71fb      	strb	r3, [r7, #7]
 80008ea:	e02f      	b.n	800094c <RussianFont+0x38c>
 80008ec:	f04f 03e4 	mov.w	r3, #228	; 0xe4
 80008f0:	71fb      	strb	r3, [r7, #7]
 80008f2:	e02b      	b.n	800094c <RussianFont+0x38c>
 80008f4:	f04f 0378 	mov.w	r3, #120	; 0x78
 80008f8:	71fb      	strb	r3, [r7, #7]
 80008fa:	e027      	b.n	800094c <RussianFont+0x38c>
 80008fc:	f04f 03e5 	mov.w	r3, #229	; 0xe5
 8000900:	71fb      	strb	r3, [r7, #7]
 8000902:	e023      	b.n	800094c <RussianFont+0x38c>
 8000904:	f04f 03c0 	mov.w	r3, #192	; 0xc0
 8000908:	71fb      	strb	r3, [r7, #7]
 800090a:	e01f      	b.n	800094c <RussianFont+0x38c>
 800090c:	f04f 03c1 	mov.w	r3, #193	; 0xc1
 8000910:	71fb      	strb	r3, [r7, #7]
 8000912:	e01b      	b.n	800094c <RussianFont+0x38c>
 8000914:	f04f 03e6 	mov.w	r3, #230	; 0xe6
 8000918:	71fb      	strb	r3, [r7, #7]
 800091a:	e017      	b.n	800094c <RussianFont+0x38c>
 800091c:	f04f 03c2 	mov.w	r3, #194	; 0xc2
 8000920:	71fb      	strb	r3, [r7, #7]
 8000922:	e013      	b.n	800094c <RussianFont+0x38c>
 8000924:	f04f 03c3 	mov.w	r3, #195	; 0xc3
 8000928:	71fb      	strb	r3, [r7, #7]
 800092a:	e00f      	b.n	800094c <RussianFont+0x38c>
 800092c:	f04f 03c4 	mov.w	r3, #196	; 0xc4
 8000930:	71fb      	strb	r3, [r7, #7]
 8000932:	e00b      	b.n	800094c <RussianFont+0x38c>
 8000934:	f04f 03c5 	mov.w	r3, #197	; 0xc5
 8000938:	71fb      	strb	r3, [r7, #7]
 800093a:	e007      	b.n	800094c <RussianFont+0x38c>
 800093c:	f04f 03c6 	mov.w	r3, #198	; 0xc6
 8000940:	71fb      	strb	r3, [r7, #7]
 8000942:	e003      	b.n	800094c <RussianFont+0x38c>
 8000944:	f04f 03c7 	mov.w	r3, #199	; 0xc7
 8000948:	71fb      	strb	r3, [r7, #7]
 800094a:	bf00      	nop
 800094c:	79fb      	ldrb	r3, [r7, #7]
 800094e:	4618      	mov	r0, r3
 8000950:	f107 070c 	add.w	r7, r7, #12
 8000954:	46bd      	mov	sp, r7
 8000956:	bc80      	pop	{r7}
 8000958:	4770      	bx	lr
 800095a:	bf00      	nop

0800095c <lcd_delay>:
 800095c:	b480      	push	{r7}
 800095e:	b083      	sub	sp, #12
 8000960:	af00      	add	r7, sp, #0
 8000962:	f242 7310 	movw	r3, #10000	; 0x2710
 8000966:	607b      	str	r3, [r7, #4]
 8000968:	e003      	b.n	8000972 <lcd_delay+0x16>
 800096a:	687b      	ldr	r3, [r7, #4]
 800096c:	f103 33ff 	add.w	r3, r3, #4294967295
 8000970:	607b      	str	r3, [r7, #4]
 8000972:	687b      	ldr	r3, [r7, #4]
 8000974:	2b00      	cmp	r3, #0
 8000976:	d1f8      	bne.n	800096a <lcd_delay+0xe>
 8000978:	f107 070c 	add.w	r7, r7, #12
 800097c:	46bd      	mov	sp, r7
 800097e:	bc80      	pop	{r7}
 8000980:	4770      	bx	lr
 8000982:	bf00      	nop

08000984 <lcd_init>:
 8000984:	b580      	push	{r7, lr}
 8000986:	af00      	add	r7, sp, #0
 8000988:	f44f 5380 	mov.w	r3, #4096	; 0x1000
 800098c:	f2c4 0301 	movt	r3, #16385	; 0x4001
 8000990:	f44f 5280 	mov.w	r2, #4096	; 0x1000
 8000994:	f2c4 0201 	movt	r2, #16385	; 0x4001
 8000998:	6852      	ldr	r2, [r2, #4]
 800099a:	605a      	str	r2, [r3, #4]
 800099c:	f44f 5280 	mov.w	r2, #4096	; 0x1000
 80009a0:	f2c4 0201 	movt	r2, #16385	; 0x4001
 80009a4:	f44f 5380 	mov.w	r3, #4096	; 0x1000
 80009a8:	f2c4 0301 	movt	r3, #16385	; 0x4001
 80009ac:	681b      	ldr	r3, [r3, #0]
 80009ae:	4619      	mov	r1, r3
 80009b0:	f241 1311 	movw	r3, #4369	; 0x1111
 80009b4:	f2c0 0311 	movt	r3, #17
 80009b8:	430b      	orrs	r3, r1
 80009ba:	6013      	str	r3, [r2, #0]
 80009bc:	f44f 5380 	mov.w	r3, #4096	; 0x1000
 80009c0:	f2c4 0301 	movt	r3, #16385	; 0x4001
 80009c4:	f44f 5280 	mov.w	r2, #4096	; 0x1000
 80009c8:	f2c4 0201 	movt	r2, #16385	; 0x4001
 80009cc:	6852      	ldr	r2, [r2, #4]
 80009ce:	605a      	str	r2, [r3, #4]
 80009d0:	f44f 5280 	mov.w	r2, #4096	; 0x1000
 80009d4:	f2c4 0201 	movt	r2, #16385	; 0x4001
 80009d8:	f44f 5380 	mov.w	r3, #4096	; 0x1000
 80009dc:	f2c4 0301 	movt	r3, #16385	; 0x4001
 80009e0:	681b      	ldr	r3, [r3, #0]
 80009e2:	4619      	mov	r1, r3
 80009e4:	f241 1311 	movw	r3, #4369	; 0x1111
 80009e8:	f6cf 7311 	movt	r3, #65297	; 0xff11
 80009ec:	400b      	ands	r3, r1
 80009ee:	6013      	str	r3, [r2, #0]
 80009f0:	f000 f892 	bl	8000b18 <lcd_set_4bit_mode>
 80009f4:	f04f 0001 	mov.w	r0, #1
 80009f8:	f04f 0101 	mov.w	r1, #1
 80009fc:	f04f 0200 	mov.w	r2, #0
 8000a00:	f000 f84e 	bl	8000aa0 <lcd_set_state>
 8000a04:	f000 f842 	bl	8000a8c <lcd_clear>
 8000a08:	f04f 0006 	mov.w	r0, #6
 8000a0c:	f04f 0100 	mov.w	r1, #0
 8000a10:	f000 f8ec 	bl	8000bec <lcd_send>
 8000a14:	bd80      	pop	{r7, pc}
 8000a16:	bf00      	nop

08000a18 <lcd_set_xy>:
 8000a18:	b580      	push	{r7, lr}
 8000a1a:	b082      	sub	sp, #8
 8000a1c:	af00      	add	r7, sp, #0
 8000a1e:	4602      	mov	r2, r0
 8000a20:	460b      	mov	r3, r1
 8000a22:	71fa      	strb	r2, [r7, #7]
 8000a24:	71bb      	strb	r3, [r7, #6]
 8000a26:	79bb      	ldrb	r3, [r7, #6]
 8000a28:	2b00      	cmp	r3, #0
 8000a2a:	d109      	bne.n	8000a40 <lcd_set_xy+0x28>
 8000a2c:	79fb      	ldrb	r3, [r7, #7]
 8000a2e:	f063 037f 	orn	r3, r3, #127	; 0x7f
 8000a32:	b2db      	uxtb	r3, r3
 8000a34:	4618      	mov	r0, r3
 8000a36:	f04f 0100 	mov.w	r1, #0
 8000a3a:	f000 f8d7 	bl	8000bec <lcd_send>
 8000a3e:	e008      	b.n	8000a52 <lcd_set_xy+0x3a>
 8000a40:	79fb      	ldrb	r3, [r7, #7]
 8000a42:	f063 033f 	orn	r3, r3, #63	; 0x3f
 8000a46:	b2db      	uxtb	r3, r3
 8000a48:	4618      	mov	r0, r3
 8000a4a:	f04f 0100 	mov.w	r1, #0
 8000a4e:	f000 f8cd 	bl	8000bec <lcd_send>
 8000a52:	f107 0708 	add.w	r7, r7, #8
 8000a56:	46bd      	mov	sp, r7
 8000a58:	bd80      	pop	{r7, pc}
 8000a5a:	bf00      	nop

08000a5c <lcd_out>:
 8000a5c:	b580      	push	{r7, lr}
 8000a5e:	b082      	sub	sp, #8
 8000a60:	af00      	add	r7, sp, #0
 8000a62:	6078      	str	r0, [r7, #4]
 8000a64:	e00a      	b.n	8000a7c <lcd_out+0x20>
 8000a66:	687b      	ldr	r3, [r7, #4]
 8000a68:	781b      	ldrb	r3, [r3, #0]
 8000a6a:	4618      	mov	r0, r3
 8000a6c:	f04f 0101 	mov.w	r1, #1
 8000a70:	f000 f8bc 	bl	8000bec <lcd_send>
 8000a74:	687b      	ldr	r3, [r7, #4]
 8000a76:	f103 0301 	add.w	r3, r3, #1
 8000a7a:	607b      	str	r3, [r7, #4]
 8000a7c:	687b      	ldr	r3, [r7, #4]
 8000a7e:	781b      	ldrb	r3, [r3, #0]
 8000a80:	2b00      	cmp	r3, #0
 8000a82:	d1f0      	bne.n	8000a66 <lcd_out+0xa>
 8000a84:	f107 0708 	add.w	r7, r7, #8
 8000a88:	46bd      	mov	sp, r7
 8000a8a:	bd80      	pop	{r7, pc}

08000a8c <lcd_clear>:
 8000a8c:	b580      	push	{r7, lr}
 8000a8e:	af00      	add	r7, sp, #0
 8000a90:	f04f 0001 	mov.w	r0, #1
 8000a94:	f04f 0100 	mov.w	r1, #0
 8000a98:	f000 f8a8 	bl	8000bec <lcd_send>
 8000a9c:	bd80      	pop	{r7, pc}
 8000a9e:	bf00      	nop

08000aa0 <lcd_set_state>:
 8000aa0:	b580      	push	{r7, lr}
 8000aa2:	b082      	sub	sp, #8
 8000aa4:	af00      	add	r7, sp, #0
 8000aa6:	4613      	mov	r3, r2
 8000aa8:	4602      	mov	r2, r0
 8000aaa:	71fa      	strb	r2, [r7, #7]
 8000aac:	460a      	mov	r2, r1
 8000aae:	71ba      	strb	r2, [r7, #6]
 8000ab0:	717b      	strb	r3, [r7, #5]
 8000ab2:	79fb      	ldrb	r3, [r7, #7]
 8000ab4:	2b00      	cmp	r3, #0
 8000ab6:	d106      	bne.n	8000ac6 <lcd_set_state+0x26>
 8000ab8:	f04f 0008 	mov.w	r0, #8
 8000abc:	f04f 0100 	mov.w	r1, #0
 8000ac0:	f000 f894 	bl	8000bec <lcd_send>
 8000ac4:	e023      	b.n	8000b0e <lcd_set_state+0x6e>
 8000ac6:	79bb      	ldrb	r3, [r7, #6]
 8000ac8:	2b00      	cmp	r3, #0
 8000aca:	d110      	bne.n	8000aee <lcd_set_state+0x4e>
 8000acc:	797b      	ldrb	r3, [r7, #5]
 8000ace:	2b00      	cmp	r3, #0
 8000ad0:	d106      	bne.n	8000ae0 <lcd_set_state+0x40>
 8000ad2:	f04f 000c 	mov.w	r0, #12
 8000ad6:	f04f 0100 	mov.w	r1, #0
 8000ada:	f000 f887 	bl	8000bec <lcd_send>
 8000ade:	e016      	b.n	8000b0e <lcd_set_state+0x6e>
 8000ae0:	f04f 000d 	mov.w	r0, #13
 8000ae4:	f04f 0100 	mov.w	r1, #0
 8000ae8:	f000 f880 	bl	8000bec <lcd_send>
 8000aec:	e00f      	b.n	8000b0e <lcd_set_state+0x6e>
 8000aee:	797b      	ldrb	r3, [r7, #5]
 8000af0:	2b00      	cmp	r3, #0
 8000af2:	d106      	bne.n	8000b02 <lcd_set_state+0x62>
 8000af4:	f04f 000e 	mov.w	r0, #14
 8000af8:	f04f 0100 	mov.w	r1, #0
 8000afc:	f000 f876 	bl	8000bec <lcd_send>
 8000b00:	e005      	b.n	8000b0e <lcd_set_state+0x6e>
 8000b02:	f04f 000f 	mov.w	r0, #15
 8000b06:	f04f 0100 	mov.w	r1, #0
 8000b0a:	f000 f86f 	bl	8000bec <lcd_send>
 8000b0e:	f107 0708 	add.w	r7, r7, #8
 8000b12:	46bd      	mov	sp, r7
 8000b14:	bd80      	pop	{r7, pc}
 8000b16:	bf00      	nop

08000b18 <lcd_set_4bit_mode>:
 8000b18:	b580      	push	{r7, lr}
 8000b1a:	af00      	add	r7, sp, #0
 8000b1c:	f7ff ff1e 	bl	800095c <lcd_delay>
 8000b20:	f7ff ff1c 	bl	800095c <lcd_delay>
 8000b24:	f7ff ff1a 	bl	800095c <lcd_delay>
 8000b28:	f44f 5380 	mov.w	r3, #4096	; 0x1000
 8000b2c:	f2c4 0301 	movt	r3, #16385	; 0x4001
 8000b30:	f44f 127c 	mov.w	r2, #4128768	; 0x3f0000
 8000b34:	611a      	str	r2, [r3, #16]
 8000b36:	f44f 5380 	mov.w	r3, #4096	; 0x1000
 8000b3a:	f2c4 0301 	movt	r3, #16385	; 0x4001
 8000b3e:	f04f 0208 	mov.w	r2, #8
 8000b42:	611a      	str	r2, [r3, #16]
 8000b44:	f44f 5380 	mov.w	r3, #4096	; 0x1000
 8000b48:	f2c4 0301 	movt	r3, #16385	; 0x4001
 8000b4c:	f04f 0201 	mov.w	r2, #1
 8000b50:	611a      	str	r2, [r3, #16]
 8000b52:	f7ff ff03 	bl	800095c <lcd_delay>
 8000b56:	f44f 5380 	mov.w	r3, #4096	; 0x1000
 8000b5a:	f2c4 0301 	movt	r3, #16385	; 0x4001
 8000b5e:	f44f 3280 	mov.w	r2, #65536	; 0x10000
 8000b62:	611a      	str	r2, [r3, #16]
 8000b64:	f7ff fefa 	bl	800095c <lcd_delay>
 8000b68:	f44f 5380 	mov.w	r3, #4096	; 0x1000
 8000b6c:	f2c4 0301 	movt	r3, #16385	; 0x4001
 8000b70:	f44f 127c 	mov.w	r2, #4128768	; 0x3f0000
 8000b74:	611a      	str	r2, [r3, #16]
 8000b76:	f44f 5380 	mov.w	r3, #4096	; 0x1000
 8000b7a:	f2c4 0301 	movt	r3, #16385	; 0x4001
 8000b7e:	f04f 0208 	mov.w	r2, #8
 8000b82:	611a      	str	r2, [r3, #16]
 8000b84:	f44f 5380 	mov.w	r3, #4096	; 0x1000
 8000b88:	f2c4 0301 	movt	r3, #16385	; 0x4001
 8000b8c:	f04f 0201 	mov.w	r2, #1
 8000b90:	611a      	str	r2, [r3, #16]
 8000b92:	f7ff fee3 	bl	800095c <lcd_delay>
 8000b96:	f44f 5380 	mov.w	r3, #4096	; 0x1000
 8000b9a:	f2c4 0301 	movt	r3, #16385	; 0x4001
 8000b9e:	f44f 3280 	mov.w	r2, #65536	; 0x10000
 8000ba2:	611a      	str	r2, [r3, #16]
 8000ba4:	f7ff feda 	bl	800095c <lcd_delay>
 8000ba8:	f44f 5380 	mov.w	r3, #4096	; 0x1000
 8000bac:	f2c4 0301 	movt	r3, #16385	; 0x4001
 8000bb0:	f44f 127c 	mov.w	r2, #4128768	; 0x3f0000
 8000bb4:	611a      	str	r2, [r3, #16]
 8000bb6:	f44f 5380 	mov.w	r3, #4096	; 0x1000
 8000bba:	f2c4 0301 	movt	r3, #16385	; 0x4001
 8000bbe:	f04f 0220 	mov.w	r2, #32
 8000bc2:	611a      	str	r2, [r3, #16]
 8000bc4:	f44f 5380 	mov.w	r3, #4096	; 0x1000
 8000bc8:	f2c4 0301 	movt	r3, #16385	; 0x4001
 8000bcc:	f04f 0201 	mov.w	r2, #1
 8000bd0:	611a      	str	r2, [r3, #16]
 8000bd2:	f7ff fec3 	bl	800095c <lcd_delay>
 8000bd6:	f44f 5380 	mov.w	r3, #4096	; 0x1000
 8000bda:	f2c4 0301 	movt	r3, #16385	; 0x4001
 8000bde:	f44f 3280 	mov.w	r2, #65536	; 0x10000
 8000be2:	611a      	str	r2, [r3, #16]
 8000be4:	f7ff feba 	bl	800095c <lcd_delay>
 8000be8:	bd80      	pop	{r7, pc}
 8000bea:	bf00      	nop

08000bec <lcd_send>:
 8000bec:	b580      	push	{r7, lr}
 8000bee:	b082      	sub	sp, #8
 8000bf0:	af00      	add	r7, sp, #0
 8000bf2:	4602      	mov	r2, r0
 8000bf4:	460b      	mov	r3, r1
 8000bf6:	71fa      	strb	r2, [r7, #7]
 8000bf8:	71bb      	strb	r3, [r7, #6]
 8000bfa:	f44f 5380 	mov.w	r3, #4096	; 0x1000
 8000bfe:	f2c4 0301 	movt	r3, #16385	; 0x4001
 8000c02:	f44f 127c 	mov.w	r2, #4128768	; 0x3f0000
 8000c06:	611a      	str	r2, [r3, #16]
 8000c08:	79bb      	ldrb	r3, [r7, #6]
 8000c0a:	2b00      	cmp	r3, #0
 8000c0c:	d00f      	beq.n	8000c2e <lcd_send+0x42>
 8000c0e:	f44f 5380 	mov.w	r3, #4096	; 0x1000
 8000c12:	f2c4 0301 	movt	r3, #16385	; 0x4001
 8000c16:	f04f 0202 	mov.w	r2, #2
 8000c1a:	611a      	str	r2, [r3, #16]
 8000c1c:	79fb      	ldrb	r3, [r7, #7]
 8000c1e:	2ba0      	cmp	r3, #160	; 0xa0
 8000c20:	d905      	bls.n	8000c2e <lcd_send+0x42>
 8000c22:	79fb      	ldrb	r3, [r7, #7]
 8000c24:	4618      	mov	r0, r3
 8000c26:	f7ff fccb 	bl	80005c0 <RussianFont>
 8000c2a:	4603      	mov	r3, r0
 8000c2c:	71fb      	strb	r3, [r7, #7]
 8000c2e:	79fb      	ldrb	r3, [r7, #7]
 8000c30:	f003 0310 	and.w	r3, r3, #16
 8000c34:	2b00      	cmp	r3, #0
 8000c36:	d006      	beq.n	8000c46 <lcd_send+0x5a>
 8000c38:	f44f 5380 	mov.w	r3, #4096	; 0x1000
 8000c3c:	f2c4 0301 	movt	r3, #16385	; 0x4001
 8000c40:	f04f 0204 	mov.w	r2, #4
 8000c44:	611a      	str	r2, [r3, #16]
 8000c46:	79fb      	ldrb	r3, [r7, #7]
 8000c48:	f003 0320 	and.w	r3, r3, #32
 8000c4c:	2b00      	cmp	r3, #0
 8000c4e:	d006      	beq.n	8000c5e <lcd_send+0x72>
 8000c50:	f44f 5380 	mov.w	r3, #4096	; 0x1000
 8000c54:	f2c4 0301 	movt	r3, #16385	; 0x4001
 8000c58:	f04f 0208 	mov.w	r2, #8
 8000c5c:	611a      	str	r2, [r3, #16]
 8000c5e:	79fb      	ldrb	r3, [r7, #7]
 8000c60:	f003 0340 	and.w	r3, r3, #64	; 0x40
 8000c64:	2b00      	cmp	r3, #0
 8000c66:	d006      	beq.n	8000c76 <lcd_send+0x8a>
 8000c68:	f44f 5380 	mov.w	r3, #4096	; 0x1000
 8000c6c:	f2c4 0301 	movt	r3, #16385	; 0x4001
 8000c70:	f04f 0210 	mov.w	r2, #16
 8000c74:	611a      	str	r2, [r3, #16]
 8000c76:	79fb      	ldrb	r3, [r7, #7]
 8000c78:	b25b      	sxtb	r3, r3
 8000c7a:	2b00      	cmp	r3, #0
 8000c7c:	da06      	bge.n	8000c8c <lcd_send+0xa0>
 8000c7e:	f44f 5380 	mov.w	r3, #4096	; 0x1000
 8000c82:	f2c4 0301 	movt	r3, #16385	; 0x4001
 8000c86:	f04f 0220 	mov.w	r2, #32
 8000c8a:	611a      	str	r2, [r3, #16]
 8000c8c:	f44f 5380 	mov.w	r3, #4096	; 0x1000
 8000c90:	f2c4 0301 	movt	r3, #16385	; 0x4001
 8000c94:	f04f 0201 	mov.w	r2, #1
 8000c98:	611a      	str	r2, [r3, #16]
 8000c9a:	f7ff fe5f 	bl	800095c <lcd_delay>
 8000c9e:	f44f 5380 	mov.w	r3, #4096	; 0x1000
 8000ca2:	f2c4 0301 	movt	r3, #16385	; 0x4001
 8000ca6:	f44f 3280 	mov.w	r2, #65536	; 0x10000
 8000caa:	611a      	str	r2, [r3, #16]
 8000cac:	f7ff fe56 	bl	800095c <lcd_delay>
 8000cb0:	f44f 5380 	mov.w	r3, #4096	; 0x1000
 8000cb4:	f2c4 0301 	movt	r3, #16385	; 0x4001
 8000cb8:	f44f 1270 	mov.w	r2, #3932160	; 0x3c0000
 8000cbc:	611a      	str	r2, [r3, #16]
 8000cbe:	79fb      	ldrb	r3, [r7, #7]
 8000cc0:	f003 0301 	and.w	r3, r3, #1
 8000cc4:	b2db      	uxtb	r3, r3
 8000cc6:	2b00      	cmp	r3, #0
 8000cc8:	d006      	beq.n	8000cd8 <lcd_send+0xec>
 8000cca:	f44f 5380 	mov.w	r3, #4096	; 0x1000
 8000cce:	f2c4 0301 	movt	r3, #16385	; 0x4001
 8000cd2:	f04f 0204 	mov.w	r2, #4
 8000cd6:	611a      	str	r2, [r3, #16]
 8000cd8:	79fb      	ldrb	r3, [r7, #7]
 8000cda:	f003 0302 	and.w	r3, r3, #2
 8000cde:	2b00      	cmp	r3, #0
 8000ce0:	d006      	beq.n	8000cf0 <lcd_send+0x104>
 8000ce2:	f44f 5380 	mov.w	r3, #4096	; 0x1000
 8000ce6:	f2c4 0301 	movt	r3, #16385	; 0x4001
 8000cea:	f04f 0208 	mov.w	r2, #8
 8000cee:	611a      	str	r2, [r3, #16]
 8000cf0:	79fb      	ldrb	r3, [r7, #7]
 8000cf2:	f003 0304 	and.w	r3, r3, #4
 8000cf6:	2b00      	cmp	r3, #0
 8000cf8:	d006      	beq.n	8000d08 <lcd_send+0x11c>
 8000cfa:	f44f 5380 	mov.w	r3, #4096	; 0x1000
 8000cfe:	f2c4 0301 	movt	r3, #16385	; 0x4001
 8000d02:	f04f 0210 	mov.w	r2, #16
 8000d06:	611a      	str	r2, [r3, #16]
 8000d08:	79fb      	ldrb	r3, [r7, #7]
 8000d0a:	f003 0308 	and.w	r3, r3, #8
 8000d0e:	2b00      	cmp	r3, #0
 8000d10:	d006      	beq.n	8000d20 <lcd_send+0x134>
 8000d12:	f44f 5380 	mov.w	r3, #4096	; 0x1000
 8000d16:	f2c4 0301 	movt	r3, #16385	; 0x4001
 8000d1a:	f04f 0220 	mov.w	r2, #32
 8000d1e:	611a      	str	r2, [r3, #16]
 8000d20:	f44f 5380 	mov.w	r3, #4096	; 0x1000
 8000d24:	f2c4 0301 	movt	r3, #16385	; 0x4001
 8000d28:	f04f 0201 	mov.w	r2, #1
 8000d2c:	611a      	str	r2, [r3, #16]
 8000d2e:	f7ff fe15 	bl	800095c <lcd_delay>
 8000d32:	f44f 5380 	mov.w	r3, #4096	; 0x1000
 8000d36:	f2c4 0301 	movt	r3, #16385	; 0x4001
 8000d3a:	f44f 3280 	mov.w	r2, #65536	; 0x10000
 8000d3e:	611a      	str	r2, [r3, #16]
 8000d40:	f7ff fe0c 	bl	800095c <lcd_delay>
 8000d44:	f107 0708 	add.w	r7, r7, #8
 8000d48:	46bd      	mov	sp, r7
 8000d4a:	bd80      	pop	{r7, pc}

08000d4c <GPIO_Init>:
 8000d4c:	b480      	push	{r7}
 8000d4e:	b089      	sub	sp, #36	; 0x24
 8000d50:	af00      	add	r7, sp, #0
 8000d52:	6078      	str	r0, [r7, #4]
 8000d54:	6039      	str	r1, [r7, #0]
 8000d56:	f04f 0300 	mov.w	r3, #0
 8000d5a:	61fb      	str	r3, [r7, #28]
 8000d5c:	f04f 0300 	mov.w	r3, #0
 8000d60:	613b      	str	r3, [r7, #16]
 8000d62:	f04f 0300 	mov.w	r3, #0
 8000d66:	61bb      	str	r3, [r7, #24]
 8000d68:	f04f 0300 	mov.w	r3, #0
 8000d6c:	60fb      	str	r3, [r7, #12]
 8000d6e:	f04f 0300 	mov.w	r3, #0
 8000d72:	617b      	str	r3, [r7, #20]
 8000d74:	f04f 0300 	mov.w	r3, #0
 8000d78:	60bb      	str	r3, [r7, #8]
 8000d7a:	683b      	ldr	r3, [r7, #0]
 8000d7c:	78db      	ldrb	r3, [r3, #3]
 8000d7e:	f003 030f 	and.w	r3, r3, #15
 8000d82:	61fb      	str	r3, [r7, #28]
 8000d84:	683b      	ldr	r3, [r7, #0]
 8000d86:	78db      	ldrb	r3, [r3, #3]
 8000d88:	f003 0310 	and.w	r3, r3, #16
 8000d8c:	2b00      	cmp	r3, #0
 8000d8e:	d004      	beq.n	8000d9a <GPIO_Init+0x4e>
 8000d90:	683b      	ldr	r3, [r7, #0]
 8000d92:	789b      	ldrb	r3, [r3, #2]
 8000d94:	69fa      	ldr	r2, [r7, #28]
 8000d96:	4313      	orrs	r3, r2
 8000d98:	61fb      	str	r3, [r7, #28]
 8000d9a:	683b      	ldr	r3, [r7, #0]
 8000d9c:	881b      	ldrh	r3, [r3, #0]
 8000d9e:	b2db      	uxtb	r3, r3
 8000da0:	2b00      	cmp	r3, #0
 8000da2:	d04e      	beq.n	8000e42 <GPIO_Init+0xf6>
 8000da4:	687b      	ldr	r3, [r7, #4]
 8000da6:	681b      	ldr	r3, [r3, #0]
 8000da8:	617b      	str	r3, [r7, #20]
 8000daa:	f04f 0300 	mov.w	r3, #0
 8000dae:	61bb      	str	r3, [r7, #24]
 8000db0:	e041      	b.n	8000e36 <GPIO_Init+0xea>
 8000db2:	69bb      	ldr	r3, [r7, #24]
 8000db4:	f04f 0201 	mov.w	r2, #1
 8000db8:	fa02 f303 	lsl.w	r3, r2, r3
 8000dbc:	60fb      	str	r3, [r7, #12]
 8000dbe:	683b      	ldr	r3, [r7, #0]
 8000dc0:	881b      	ldrh	r3, [r3, #0]
 8000dc2:	461a      	mov	r2, r3
 8000dc4:	68fb      	ldr	r3, [r7, #12]
 8000dc6:	4013      	ands	r3, r2
 8000dc8:	613b      	str	r3, [r7, #16]
 8000dca:	693a      	ldr	r2, [r7, #16]
 8000dcc:	68fb      	ldr	r3, [r7, #12]
 8000dce:	429a      	cmp	r2, r3
 8000dd0:	d12d      	bne.n	8000e2e <GPIO_Init+0xe2>
 8000dd2:	69bb      	ldr	r3, [r7, #24]
 8000dd4:	ea4f 0383 	mov.w	r3, r3, lsl #2
 8000dd8:	60fb      	str	r3, [r7, #12]
 8000dda:	68fb      	ldr	r3, [r7, #12]
 8000ddc:	f04f 020f 	mov.w	r2, #15
 8000de0:	fa02 f303 	lsl.w	r3, r2, r3
 8000de4:	60bb      	str	r3, [r7, #8]
 8000de6:	68bb      	ldr	r3, [r7, #8]
 8000de8:	ea6f 0303 	mvn.w	r3, r3
 8000dec:	697a      	ldr	r2, [r7, #20]
 8000dee:	4013      	ands	r3, r2
 8000df0:	617b      	str	r3, [r7, #20]
 8000df2:	68fb      	ldr	r3, [r7, #12]
 8000df4:	69fa      	ldr	r2, [r7, #28]
 8000df6:	fa02 f303 	lsl.w	r3, r2, r3
 8000dfa:	697a      	ldr	r2, [r7, #20]
 8000dfc:	4313      	orrs	r3, r2
 8000dfe:	617b      	str	r3, [r7, #20]
 8000e00:	683b      	ldr	r3, [r7, #0]
 8000e02:	78db      	ldrb	r3, [r3, #3]
 8000e04:	2b28      	cmp	r3, #40	; 0x28
 8000e06:	d107      	bne.n	8000e18 <GPIO_Init+0xcc>
 8000e08:	69bb      	ldr	r3, [r7, #24]
 8000e0a:	f04f 0201 	mov.w	r2, #1
 8000e0e:	fa02 f203 	lsl.w	r2, r2, r3
 8000e12:	687b      	ldr	r3, [r7, #4]
 8000e14:	615a      	str	r2, [r3, #20]
 8000e16:	e00a      	b.n	8000e2e <GPIO_Init+0xe2>
 8000e18:	683b      	ldr	r3, [r7, #0]
 8000e1a:	78db      	ldrb	r3, [r3, #3]
 8000e1c:	2b48      	cmp	r3, #72	; 0x48
 8000e1e:	d106      	bne.n	8000e2e <GPIO_Init+0xe2>
 8000e20:	69bb      	ldr	r3, [r7, #24]
 8000e22:	f04f 0201 	mov.w	r2, #1
 8000e26:	fa02 f203 	lsl.w	r2, r2, r3
 8000e2a:	687b      	ldr	r3, [r7, #4]
 8000e2c:	611a      	str	r2, [r3, #16]
 8000e2e:	69bb      	ldr	r3, [r7, #24]
 8000e30:	f103 0301 	add.w	r3, r3, #1
 8000e34:	61bb      	str	r3, [r7, #24]
 8000e36:	69bb      	ldr	r3, [r7, #24]
 8000e38:	2b07      	cmp	r3, #7
 8000e3a:	d9ba      	bls.n	8000db2 <GPIO_Init+0x66>
 8000e3c:	687b      	ldr	r3, [r7, #4]
 8000e3e:	697a      	ldr	r2, [r7, #20]
 8000e40:	601a      	str	r2, [r3, #0]
 8000e42:	683b      	ldr	r3, [r7, #0]
 8000e44:	881b      	ldrh	r3, [r3, #0]
 8000e46:	2bff      	cmp	r3, #255	; 0xff
 8000e48:	d953      	bls.n	8000ef2 <GPIO_Init+0x1a6>
 8000e4a:	687b      	ldr	r3, [r7, #4]
 8000e4c:	685b      	ldr	r3, [r3, #4]
 8000e4e:	617b      	str	r3, [r7, #20]
 8000e50:	f04f 0300 	mov.w	r3, #0
 8000e54:	61bb      	str	r3, [r7, #24]
 8000e56:	e046      	b.n	8000ee6 <GPIO_Init+0x19a>
 8000e58:	69bb      	ldr	r3, [r7, #24]
 8000e5a:	f103 0308 	add.w	r3, r3, #8
 8000e5e:	f04f 0201 	mov.w	r2, #1
 8000e62:	fa02 f303 	lsl.w	r3, r2, r3
 8000e66:	60fb      	str	r3, [r7, #12]
 8000e68:	683b      	ldr	r3, [r7, #0]
 8000e6a:	881b      	ldrh	r3, [r3, #0]
 8000e6c:	461a      	mov	r2, r3
 8000e6e:	68fb      	ldr	r3, [r7, #12]
 8000e70:	4013      	ands	r3, r2
 8000e72:	613b      	str	r3, [r7, #16]
 8000e74:	693a      	ldr	r2, [r7, #16]
 8000e76:	68fb      	ldr	r3, [r7, #12]
 8000e78:	429a      	cmp	r2, r3
 8000e7a:	d130      	bne.n	8000ede <GPIO_Init+0x192>
 8000e7c:	69bb      	ldr	r3, [r7, #24]
 8000e7e:	ea4f 0383 	mov.w	r3, r3, lsl #2
 8000e82:	60fb      	str	r3, [r7, #12]
 8000e84:	68fb      	ldr	r3, [r7, #12]
 8000e86:	f04f 020f 	mov.w	r2, #15
 8000e8a:	fa02 f303 	lsl.w	r3, r2, r3
 8000e8e:	60bb      	str	r3, [r7, #8]
 8000e90:	68bb      	ldr	r3, [r7, #8]
 8000e92:	ea6f 0303 	mvn.w	r3, r3
 8000e96:	697a      	ldr	r2, [r7, #20]
 8000e98:	4013      	ands	r3, r2
 8000e9a:	617b      	str	r3, [r7, #20]
 8000e9c:	68fb      	ldr	r3, [r7, #12]
 8000e9e:	69fa      	ldr	r2, [r7, #28]
 8000ea0:	fa02 f303 	lsl.w	r3, r2, r3
 8000ea4:	697a      	ldr	r2, [r7, #20]
 8000ea6:	4313      	orrs	r3, r2
 8000ea8:	617b      	str	r3, [r7, #20]
 8000eaa:	683b      	ldr	r3, [r7, #0]
 8000eac:	78db      	ldrb	r3, [r3, #3]
 8000eae:	2b28      	cmp	r3, #40	; 0x28
 8000eb0:	d108      	bne.n	8000ec4 <GPIO_Init+0x178>
 8000eb2:	69bb      	ldr	r3, [r7, #24]
 8000eb4:	f103 0308 	add.w	r3, r3, #8
 8000eb8:	f04f 0201 	mov.w	r2, #1
 8000ebc:	fa02 f203 	lsl.w	r2, r2, r3
 8000ec0:	687b      	ldr	r3, [r7, #4]
 8000ec2:	615a      	str	r2, [r3, #20]
 8000ec4:	683b      	ldr	r3, [r7, #0]
 8000ec6:	78db      	ldrb	r3, [r3, #3]
 8000ec8:	2b48      	cmp	r3, #72	; 0x48
 8000eca:	d108      	bne.n	8000ede <GPIO_Init+0x192>
 8000ecc:	69bb      	ldr	r3, [r7, #24]
 8000ece:	f103 0308 	add.w	r3, r3, #8
 8000ed2:	f04f 0201 	mov.w	r2, #1
 8000ed6:	fa02 f203 	lsl.w	r2, r2, r3
 8000eda:	687b      	ldr	r3, [r7, #4]
 8000edc:	611a      	str	r2, [r3, #16]
 8000ede:	69bb      	ldr	r3, [r7, #24]
 8000ee0:	f103 0301 	add.w	r3, r3, #1
 8000ee4:	61bb      	str	r3, [r7, #24]
 8000ee6:	69bb      	ldr	r3, [r7, #24]
 8000ee8:	2b07      	cmp	r3, #7
 8000eea:	d9b5      	bls.n	8000e58 <GPIO_Init+0x10c>
 8000eec:	687b      	ldr	r3, [r7, #4]
 8000eee:	697a      	ldr	r2, [r7, #20]
 8000ef0:	605a      	str	r2, [r3, #4]
 8000ef2:	f107 0724 	add.w	r7, r7, #36	; 0x24
 8000ef6:	46bd      	mov	sp, r7
 8000ef8:	bc80      	pop	{r7}
 8000efa:	4770      	bx	lr

08000efc <GPIO_ReadInputDataBit>:
 8000efc:	b480      	push	{r7}
 8000efe:	b085      	sub	sp, #20
 8000f00:	af00      	add	r7, sp, #0
 8000f02:	6078      	str	r0, [r7, #4]
 8000f04:	460b      	mov	r3, r1
 8000f06:	807b      	strh	r3, [r7, #2]
 8000f08:	f04f 0300 	mov.w	r3, #0
 8000f0c:	73fb      	strb	r3, [r7, #15]
 8000f0e:	687b      	ldr	r3, [r7, #4]
 8000f10:	689b      	ldr	r3, [r3, #8]
 8000f12:	461a      	mov	r2, r3
 8000f14:	887b      	ldrh	r3, [r7, #2]
 8000f16:	4013      	ands	r3, r2
 8000f18:	2b00      	cmp	r3, #0
 8000f1a:	d003      	beq.n	8000f24 <GPIO_ReadInputDataBit+0x28>
 8000f1c:	f04f 0301 	mov.w	r3, #1
 8000f20:	73fb      	strb	r3, [r7, #15]
 8000f22:	e002      	b.n	8000f2a <GPIO_ReadInputDataBit+0x2e>
 8000f24:	f04f 0300 	mov.w	r3, #0
 8000f28:	73fb      	strb	r3, [r7, #15]
 8000f2a:	7bfb      	ldrb	r3, [r7, #15]
 8000f2c:	4618      	mov	r0, r3
 8000f2e:	f107 0714 	add.w	r7, r7, #20
 8000f32:	46bd      	mov	sp, r7
 8000f34:	bc80      	pop	{r7}
 8000f36:	4770      	bx	lr

08000f38 <GPIO_SetBits>:
 8000f38:	b480      	push	{r7}
 8000f3a:	b083      	sub	sp, #12
 8000f3c:	af00      	add	r7, sp, #0
 8000f3e:	6078      	str	r0, [r7, #4]
 8000f40:	460b      	mov	r3, r1
 8000f42:	807b      	strh	r3, [r7, #2]
 8000f44:	887a      	ldrh	r2, [r7, #2]
 8000f46:	687b      	ldr	r3, [r7, #4]
 8000f48:	611a      	str	r2, [r3, #16]
 8000f4a:	f107 070c 	add.w	r7, r7, #12
 8000f4e:	46bd      	mov	sp, r7
 8000f50:	bc80      	pop	{r7}
 8000f52:	4770      	bx	lr

08000f54 <GPIO_ResetBits>:
 8000f54:	b480      	push	{r7}
 8000f56:	b083      	sub	sp, #12
 8000f58:	af00      	add	r7, sp, #0
 8000f5a:	6078      	str	r0, [r7, #4]
 8000f5c:	460b      	mov	r3, r1
 8000f5e:	807b      	strh	r3, [r7, #2]
 8000f60:	887a      	ldrh	r2, [r7, #2]
 8000f62:	687b      	ldr	r3, [r7, #4]
 8000f64:	615a      	str	r2, [r3, #20]
 8000f66:	f107 070c 	add.w	r7, r7, #12
 8000f6a:	46bd      	mov	sp, r7
 8000f6c:	bc80      	pop	{r7}
 8000f6e:	4770      	bx	lr

08000f70 <GPIO_EXTILineConfig>:
 8000f70:	b490      	push	{r4, r7}
 8000f72:	b084      	sub	sp, #16
 8000f74:	af00      	add	r7, sp, #0
 8000f76:	4602      	mov	r2, r0
 8000f78:	460b      	mov	r3, r1
 8000f7a:	71fa      	strb	r2, [r7, #7]
 8000f7c:	71bb      	strb	r3, [r7, #6]
 8000f7e:	f04f 0300 	mov.w	r3, #0
 8000f82:	60fb      	str	r3, [r7, #12]
 8000f84:	79bb      	ldrb	r3, [r7, #6]
 8000f86:	f003 0303 	and.w	r3, r3, #3
 8000f8a:	ea4f 0383 	mov.w	r3, r3, lsl #2
 8000f8e:	f04f 020f 	mov.w	r2, #15
 8000f92:	fa02 f303 	lsl.w	r3, r2, r3
 8000f96:	60fb      	str	r3, [r7, #12]
 8000f98:	f04f 0300 	mov.w	r3, #0
 8000f9c:	f2c4 0301 	movt	r3, #16385	; 0x4001
 8000fa0:	79ba      	ldrb	r2, [r7, #6]
 8000fa2:	ea4f 0292 	mov.w	r2, r2, lsr #2
 8000fa6:	b2d2      	uxtb	r2, r2
 8000fa8:	4610      	mov	r0, r2
 8000faa:	f04f 0200 	mov.w	r2, #0
 8000fae:	f2c4 0201 	movt	r2, #16385	; 0x4001
 8000fb2:	79b9      	ldrb	r1, [r7, #6]
 8000fb4:	ea4f 0191 	mov.w	r1, r1, lsr #2
 8000fb8:	b2c9      	uxtb	r1, r1
 8000fba:	f101 0102 	add.w	r1, r1, #2
 8000fbe:	f852 2021 	ldr.w	r2, [r2, r1, lsl #2]
 8000fc2:	4611      	mov	r1, r2
 8000fc4:	68fa      	ldr	r2, [r7, #12]
 8000fc6:	ea6f 0202 	mvn.w	r2, r2
 8000fca:	4011      	ands	r1, r2
 8000fcc:	f100 0202 	add.w	r2, r0, #2
 8000fd0:	f843 1022 	str.w	r1, [r3, r2, lsl #2]
 8000fd4:	f04f 0300 	mov.w	r3, #0
 8000fd8:	f2c4 0301 	movt	r3, #16385	; 0x4001
 8000fdc:	79ba      	ldrb	r2, [r7, #6]
 8000fde:	ea4f 0292 	mov.w	r2, r2, lsr #2
 8000fe2:	b2d2      	uxtb	r2, r2
 8000fe4:	4610      	mov	r0, r2
 8000fe6:	f04f 0200 	mov.w	r2, #0
 8000fea:	f2c4 0201 	movt	r2, #16385	; 0x4001
 8000fee:	79b9      	ldrb	r1, [r7, #6]
 8000ff0:	ea4f 0191 	mov.w	r1, r1, lsr #2
 8000ff4:	b2c9      	uxtb	r1, r1
 8000ff6:	f101 0102 	add.w	r1, r1, #2
 8000ffa:	f852 2021 	ldr.w	r2, [r2, r1, lsl #2]
 8000ffe:	4611      	mov	r1, r2
 8001000:	79fc      	ldrb	r4, [r7, #7]
 8001002:	79ba      	ldrb	r2, [r7, #6]
 8001004:	f002 0203 	and.w	r2, r2, #3
 8001008:	ea4f 0282 	mov.w	r2, r2, lsl #2
 800100c:	fa04 f202 	lsl.w	r2, r4, r2
 8001010:	4311      	orrs	r1, r2
 8001012:	f100 0202 	add.w	r2, r0, #2
 8001016:	f843 1022 	str.w	r1, [r3, r2, lsl #2]
 800101a:	f107 0710 	add.w	r7, r7, #16
 800101e:	46bd      	mov	sp, r7
 8001020:	bc90      	pop	{r4, r7}
 8001022:	4770      	bx	lr

08001024 <main>:
 8001024:	b580      	push	{r7, lr}
 8001026:	af00      	add	r7, sp, #0
 8001028:	f000 f840 	bl	80010ac <RCC_Configuration>
 800102c:	f000 f866 	bl	80010fc <GPIO_Configuration>
 8001030:	f000 f8b0 	bl	8001194 <NVIC_Configuration>
 8001034:	f000 f8dc 	bl	80011f0 <TIM_Configuration>
 8001038:	f000 f910 	bl	800125c <ADC_Configuration>
 800103c:	f7ff fca2 	bl	8000984 <lcd_init>
 8001040:	f04f 0001 	mov.w	r0, #1
 8001044:	f04f 0101 	mov.w	r1, #1
 8001048:	f04f 0201 	mov.w	r2, #1
 800104c:	f7ff fd28 	bl	8000aa0 <lcd_set_state>
 8001050:	f000 f9e8 	bl	8001424 <menu>
 8001054:	f000 faee 	bl	8001634 <okey>
 8001058:	f240 0374 	movw	r3, #116	; 0x74
 800105c:	f2c2 0300 	movt	r3, #8192	; 0x2000
 8001060:	681a      	ldr	r2, [r3, #0]
 8001062:	f240 033c 	movw	r3, #60	; 0x3c
 8001066:	f2c2 0300 	movt	r3, #8192	; 0x2000
 800106a:	f853 3022 	ldr.w	r3, [r3, r2, lsl #2]
 800106e:	4618      	mov	r0, r3
 8001070:	f000 f95c 	bl	800132c <SetTimTime>
 8001074:	f000 f82a 	bl	80010cc <EXTI_Configuration>
 8001078:	f7ff fd08 	bl	8000a8c <lcd_clear>
 800107c:	f242 2020 	movw	r0, #8736	; 0x2220
 8001080:	f6c0 0000 	movt	r0, #2048	; 0x800
 8001084:	f7ff fcea 	bl	8000a5c <lcd_out>
 8001088:	f04f 0000 	mov.w	r0, #0
 800108c:	f04f 0101 	mov.w	r1, #1
 8001090:	f7ff fcc2 	bl	8000a18 <lcd_set_xy>
 8001094:	e000      	b.n	8001098 <main+0x74>
 8001096:	bf00      	nop
 8001098:	f44f 4080 	mov.w	r0, #16384	; 0x4000
 800109c:	f000 fb14 	bl	80016c8 <check_button>
 80010a0:	4603      	mov	r3, r0
 80010a2:	2b00      	cmp	r3, #0
 80010a4:	d1f7      	bne.n	8001096 <main+0x72>
 80010a6:	f000 fd8b 	bl	8001bc0 <EXTI_DeInit>
 80010aa:	e7f4      	b.n	8001096 <main+0x72>

080010ac <RCC_Configuration>:
 80010ac:	b580      	push	{r7, lr}
 80010ae:	af00      	add	r7, sp, #0
 80010b0:	f04f 001d 	mov.w	r0, #29
 80010b4:	f04f 0101 	mov.w	r1, #1
 80010b8:	f000 fd2a 	bl	8001b10 <RCC_APB2PeriphClockCmd>
 80010bc:	f04f 0001 	mov.w	r0, #1
 80010c0:	f04f 0101 	mov.w	r1, #1
 80010c4:	f000 fd50 	bl	8001b68 <RCC_APB1PeriphClockCmd>
 80010c8:	bd80      	pop	{r7, pc}
 80010ca:	bf00      	nop

080010cc <EXTI_Configuration>:
 80010cc:	b580      	push	{r7, lr}
 80010ce:	b082      	sub	sp, #8
 80010d0:	af00      	add	r7, sp, #0
 80010d2:	f04f 0310 	mov.w	r3, #16
 80010d6:	603b      	str	r3, [r7, #0]
 80010d8:	f04f 0300 	mov.w	r3, #0
 80010dc:	713b      	strb	r3, [r7, #4]
 80010de:	f04f 0308 	mov.w	r3, #8
 80010e2:	717b      	strb	r3, [r7, #5]
 80010e4:	f04f 0301 	mov.w	r3, #1
 80010e8:	71bb      	strb	r3, [r7, #6]
 80010ea:	463b      	mov	r3, r7
 80010ec:	4618      	mov	r0, r3
 80010ee:	f000 fd91 	bl	8001c14 <EXTI_Init>
 80010f2:	f107 0708 	add.w	r7, r7, #8
 80010f6:	46bd      	mov	sp, r7
 80010f8:	bd80      	pop	{r7, pc}
 80010fa:	bf00      	nop

080010fc <GPIO_Configuration>:
 80010fc:	b580      	push	{r7, lr}
 80010fe:	b082      	sub	sp, #8
 8001100:	af00      	add	r7, sp, #0
 8001102:	f44f 43f8 	mov.w	r3, #31744	; 0x7c00
 8001106:	80bb      	strh	r3, [r7, #4]
 8001108:	f04f 0304 	mov.w	r3, #4
 800110c:	71fb      	strb	r3, [r7, #7]
 800110e:	f107 0304 	add.w	r3, r7, #4
 8001112:	f44f 6040 	mov.w	r0, #3072	; 0xc00
 8001116:	f2c4 0001 	movt	r0, #16385	; 0x4001
 800111a:	4619      	mov	r1, r3
 800111c:	f7ff fe16 	bl	8000d4c <GPIO_Init>
 8001120:	f04f 0310 	mov.w	r3, #16
 8001124:	71fb      	strb	r3, [r7, #7]
 8001126:	f04f 0301 	mov.w	r3, #1
 800112a:	71bb      	strb	r3, [r7, #6]
 800112c:	f44f 7340 	mov.w	r3, #768	; 0x300
 8001130:	80bb      	strh	r3, [r7, #4]
 8001132:	f107 0304 	add.w	r3, r7, #4
 8001136:	f44f 5080 	mov.w	r0, #4096	; 0x1000
 800113a:	f2c4 0001 	movt	r0, #16385	; 0x4001
 800113e:	4619      	mov	r1, r3
 8001140:	f7ff fe04 	bl	8000d4c <GPIO_Init>
 8001144:	f04f 0310 	mov.w	r3, #16
 8001148:	80bb      	strh	r3, [r7, #4]
 800114a:	f04f 0304 	mov.w	r3, #4
 800114e:	71fb      	strb	r3, [r7, #7]
 8001150:	f107 0304 	add.w	r3, r7, #4
 8001154:	f44f 6000 	mov.w	r0, #2048	; 0x800
 8001158:	f2c4 0001 	movt	r0, #16385	; 0x4001
 800115c:	4619      	mov	r1, r3
 800115e:	f7ff fdf5 	bl	8000d4c <GPIO_Init>
 8001162:	f04f 0000 	mov.w	r0, #0
 8001166:	f04f 0104 	mov.w	r1, #4
 800116a:	f7ff ff01 	bl	8000f70 <GPIO_EXTILineConfig>
 800116e:	f04f 0302 	mov.w	r3, #2
 8001172:	80bb      	strh	r3, [r7, #4]
 8001174:	f04f 0300 	mov.w	r3, #0
 8001178:	71fb      	strb	r3, [r7, #7]
 800117a:	f107 0304 	add.w	r3, r7, #4
 800117e:	f44f 6000 	mov.w	r0, #2048	; 0x800
 8001182:	f2c4 0001 	movt	r0, #16385	; 0x4001
 8001186:	4619      	mov	r1, r3
 8001188:	f7ff fde0 	bl	8000d4c <GPIO_Init>
 800118c:	f107 0708 	add.w	r7, r7, #8
 8001190:	46bd      	mov	sp, r7
 8001192:	bd80      	pop	{r7, pc}

08001194 <NVIC_Configuration>:
 8001194:	b580      	push	{r7, lr}
 8001196:	b082      	sub	sp, #8
 8001198:	af00      	add	r7, sp, #0
 800119a:	f44f 60a0 	mov.w	r0, #1280	; 0x500
 800119e:	f000 ff95 	bl	80020cc <NVIC_PriorityGroupConfig>
 80011a2:	f04f 030a 	mov.w	r3, #10
 80011a6:	713b      	strb	r3, [r7, #4]
 80011a8:	f04f 0301 	mov.w	r3, #1
 80011ac:	717b      	strb	r3, [r7, #5]
 80011ae:	f04f 0301 	mov.w	r3, #1
 80011b2:	71bb      	strb	r3, [r7, #6]
 80011b4:	f04f 0301 	mov.w	r3, #1
 80011b8:	71fb      	strb	r3, [r7, #7]
 80011ba:	f107 0304 	add.w	r3, r7, #4
 80011be:	4618      	mov	r0, r3
 80011c0:	f000 ff98 	bl	80020f4 <NVIC_Init>
 80011c4:	f04f 031c 	mov.w	r3, #28
 80011c8:	713b      	strb	r3, [r7, #4]
 80011ca:	f04f 0302 	mov.w	r3, #2
 80011ce:	717b      	strb	r3, [r7, #5]
 80011d0:	f04f 0302 	mov.w	r3, #2
 80011d4:	71bb      	strb	r3, [r7, #6]
 80011d6:	f04f 0301 	mov.w	r3, #1
 80011da:	71fb      	strb	r3, [r7, #7]
 80011dc:	f107 0304 	add.w	r3, r7, #4
 80011e0:	4618      	mov	r0, r3
 80011e2:	f000 ff87 	bl	80020f4 <NVIC_Init>
 80011e6:	f107 0708 	add.w	r7, r7, #8
 80011ea:	46bd      	mov	sp, r7
 80011ec:	bd80      	pop	{r7, pc}
 80011ee:	bf00      	nop

080011f0 <TIM_Configuration>:
 80011f0:	b580      	push	{r7, lr}
 80011f2:	af00      	add	r7, sp, #0
 80011f4:	f240 0380 	movw	r3, #128	; 0x80
 80011f8:	f2c2 0300 	movt	r3, #8192	; 0x2000
 80011fc:	f04f 0207 	mov.w	r2, #7
 8001200:	809a      	strh	r2, [r3, #4]
 8001202:	f240 0380 	movw	r3, #128	; 0x80
 8001206:	f2c2 0300 	movt	r3, #8192	; 0x2000
 800120a:	f240 32e7 	movw	r2, #999	; 0x3e7
 800120e:	801a      	strh	r2, [r3, #0]
 8001210:	f240 0380 	movw	r3, #128	; 0x80
 8001214:	f2c2 0300 	movt	r3, #8192	; 0x2000
 8001218:	f04f 0200 	mov.w	r2, #0
 800121c:	80da      	strh	r2, [r3, #6]
 800121e:	f240 0380 	movw	r3, #128	; 0x80
 8001222:	f2c2 0300 	movt	r3, #8192	; 0x2000
 8001226:	f04f 0200 	mov.w	r2, #0
 800122a:	805a      	strh	r2, [r3, #2]
 800122c:	f04f 4080 	mov.w	r0, #1073741824	; 0x40000000
 8001230:	f04f 0101 	mov.w	r1, #1
 8001234:	f7ff f848 	bl	80002c8 <TIM_ARRPreloadConfig>
 8001238:	f04f 4080 	mov.w	r0, #1073741824	; 0x40000000
 800123c:	f04f 0101 	mov.w	r1, #1
 8001240:	f04f 0201 	mov.w	r2, #1
 8001244:	f7ff f81c 	bl	8000280 <TIM_ITConfig>
 8001248:	f04f 4080 	mov.w	r0, #1073741824	; 0x40000000
 800124c:	f240 0180 	movw	r1, #128	; 0x80
 8001250:	f2c2 0100 	movt	r1, #8192	; 0x2000
 8001254:	f7fe ff66 	bl	8000124 <TIM_TimeBaseInit>
 8001258:	bd80      	pop	{r7, pc}
 800125a:	bf00      	nop

0800125c <ADC_Configuration>:
 800125c:	b580      	push	{r7, lr}
 800125e:	b086      	sub	sp, #24
 8001260:	af00      	add	r7, sp, #0
 8001262:	f44f 4000 	mov.w	r0, #32768	; 0x8000
 8001266:	f000 fc33 	bl	8001ad0 <RCC_ADCCLKConfig>
 800126a:	f44f 7000 	mov.w	r0, #512	; 0x200
 800126e:	f04f 0101 	mov.w	r1, #1
 8001272:	f000 fc4d 	bl	8001b10 <RCC_APB2PeriphClockCmd>
 8001276:	f04f 0300 	mov.w	r3, #0
 800127a:	607b      	str	r3, [r7, #4]
 800127c:	f04f 0300 	mov.w	r3, #0
 8001280:	723b      	strb	r3, [r7, #8]
 8001282:	f04f 0300 	mov.w	r3, #0
 8001286:	727b      	strb	r3, [r7, #9]
 8001288:	f44f 2360 	mov.w	r3, #917504	; 0xe0000
 800128c:	60fb      	str	r3, [r7, #12]
 800128e:	f04f 0300 	mov.w	r3, #0
 8001292:	613b      	str	r3, [r7, #16]
 8001294:	f04f 0301 	mov.w	r3, #1
 8001298:	753b      	strb	r3, [r7, #20]
 800129a:	f44f 5010 	mov.w	r0, #9216	; 0x2400
 800129e:	f2c4 0001 	movt	r0, #16385	; 0x4001
 80012a2:	f04f 0101 	mov.w	r1, #1
 80012a6:	f04f 0201 	mov.w	r2, #1
 80012aa:	f04f 0303 	mov.w	r3, #3
 80012ae:	f000 fe2f 	bl	8001f10 <ADC_RegularChannelConfig>
 80012b2:	f107 0304 	add.w	r3, r7, #4
 80012b6:	f44f 5010 	mov.w	r0, #9216	; 0x2400
 80012ba:	f2c4 0001 	movt	r0, #16385	; 0x4001
 80012be:	4619      	mov	r1, r3
 80012c0:	f000 fd5a 	bl	8001d78 <ADC_Init>
 80012c4:	f44f 5010 	mov.w	r0, #9216	; 0x2400
 80012c8:	f2c4 0001 	movt	r0, #16385	; 0x4001
 80012cc:	f04f 0101 	mov.w	r1, #1
 80012d0:	f000 fdaa 	bl	8001e28 <ADC_Cmd>
 80012d4:	f44f 5010 	mov.w	r0, #9216	; 0x2400
 80012d8:	f2c4 0001 	movt	r0, #16385	; 0x4001
 80012dc:	f000 fdc0 	bl	8001e60 <ADC_ResetCalibration>
 80012e0:	bf00      	nop
 80012e2:	f44f 5010 	mov.w	r0, #9216	; 0x2400
 80012e6:	f2c4 0001 	movt	r0, #16385	; 0x4001
 80012ea:	f000 fdc9 	bl	8001e80 <ADC_GetResetCalibrationStatus>
 80012ee:	4603      	mov	r3, r0
 80012f0:	2b00      	cmp	r3, #0
 80012f2:	d1f6      	bne.n	80012e2 <ADC_Configuration+0x86>
 80012f4:	f44f 5010 	mov.w	r0, #9216	; 0x2400
 80012f8:	f2c4 0001 	movt	r0, #16385	; 0x4001
 80012fc:	f000 fddc 	bl	8001eb8 <ADC_StartCalibration>
 8001300:	bf00      	nop
 8001302:	f44f 5010 	mov.w	r0, #9216	; 0x2400
 8001306:	f2c4 0001 	movt	r0, #16385	; 0x4001
 800130a:	f000 fde5 	bl	8001ed8 <ADC_GetCalibrationStatus>
 800130e:	4603      	mov	r3, r0
 8001310:	2b00      	cmp	r3, #0
 8001312:	d1f6      	bne.n	8001302 <ADC_Configuration+0xa6>
 8001314:	f44f 5010 	mov.w	r0, #9216	; 0x2400
 8001318:	f2c4 0001 	movt	r0, #16385	; 0x4001
 800131c:	f04f 0101 	mov.w	r1, #1
 8001320:	f000 fd82 	bl	8001e28 <ADC_Cmd>
 8001324:	f107 0718 	add.w	r7, r7, #24
 8001328:	46bd      	mov	sp, r7
 800132a:	bd80      	pop	{r7, pc}

0800132c <SetTimTime>:
 800132c:	b580      	push	{r7, lr}
 800132e:	b082      	sub	sp, #8
 8001330:	af00      	add	r7, sp, #0
 8001332:	6078      	str	r0, [r7, #4]
 8001334:	687b      	ldr	r3, [r7, #4]
 8001336:	b29a      	uxth	r2, r3
 8001338:	f240 0380 	movw	r3, #128	; 0x80
 800133c:	f2c2 0300 	movt	r3, #8192	; 0x2000
 8001340:	809a      	strh	r2, [r3, #4]
 8001342:	f04f 4080 	mov.w	r0, #1073741824	; 0x40000000
 8001346:	f240 0180 	movw	r1, #128	; 0x80
 800134a:	f2c2 0100 	movt	r1, #8192	; 0x2000
 800134e:	f7fe fee9 	bl	8000124 <TIM_TimeBaseInit>
 8001352:	f107 0708 	add.w	r7, r7, #8
 8001356:	46bd      	mov	sp, r7
 8001358:	bd80      	pop	{r7, pc}
 800135a:	bf00      	nop

0800135c <EXTI4_IRQHandler>:
 800135c:	b580      	push	{r7, lr}
 800135e:	af00      	add	r7, sp, #0
 8001360:	f04f 4080 	mov.w	r0, #1073741824	; 0x40000000
 8001364:	f04f 0101 	mov.w	r1, #1
 8001368:	f7fe ff6a 	bl	8000240 <TIM_Cmd>
 800136c:	f44f 5080 	mov.w	r0, #4096	; 0x1000
 8001370:	f2c4 0001 	movt	r0, #16385	; 0x4001
 8001374:	f44f 7100 	mov.w	r1, #512	; 0x200
 8001378:	f7ff fdde 	bl	8000f38 <GPIO_SetBits>
 800137c:	f04f 00fa 	mov.w	r0, #250	; 0xfa
 8001380:	f000 fb92 	bl	8001aa8 <delay_us>
 8001384:	f44f 5080 	mov.w	r0, #4096	; 0x1000
 8001388:	f2c4 0001 	movt	r0, #16385	; 0x4001
 800138c:	f44f 7100 	mov.w	r1, #512	; 0x200
 8001390:	f7ff fde0 	bl	8000f54 <GPIO_ResetBits>
 8001394:	f04f 0010 	mov.w	r0, #16
 8001398:	f000 fcde 	bl	8001d58 <EXTI_ClearITPendingBit>
 800139c:	bd80      	pop	{r7, pc}
 800139e:	bf00      	nop

080013a0 <TIM2_IRQHandler>:
 80013a0:	b580      	push	{r7, lr}
 80013a2:	af00      	add	r7, sp, #0
 80013a4:	f240 0370 	movw	r3, #112	; 0x70
 80013a8:	f2c2 0300 	movt	r3, #8192	; 0x2000
 80013ac:	f04f 0201 	mov.w	r2, #1
 80013b0:	701a      	strb	r2, [r3, #0]
 80013b2:	f04f 4080 	mov.w	r0, #1073741824	; 0x40000000
 80013b6:	f04f 0100 	mov.w	r1, #0
 80013ba:	f7fe ff41 	bl	8000240 <TIM_Cmd>
 80013be:	f44f 5080 	mov.w	r0, #4096	; 0x1000
 80013c2:	f2c4 0001 	movt	r0, #16385	; 0x4001
 80013c6:	f44f 7180 	mov.w	r1, #256	; 0x100
 80013ca:	f7ff fdb5 	bl	8000f38 <GPIO_SetBits>
 80013ce:	f44f 70fa 	mov.w	r0, #500	; 0x1f4
 80013d2:	f000 fb69 	bl	8001aa8 <delay_us>
 80013d6:	f44f 5080 	mov.w	r0, #4096	; 0x1000
 80013da:	f2c4 0001 	movt	r0, #16385	; 0x4001
 80013de:	f44f 7180 	mov.w	r1, #256	; 0x100
 80013e2:	f7ff fdb7 	bl	8000f54 <GPIO_ResetBits>
 80013e6:	f44f 70fa 	mov.w	r0, #500	; 0x1f4
 80013ea:	f000 fb5d 	bl	8001aa8 <delay_us>
 80013ee:	f44f 5080 	mov.w	r0, #4096	; 0x1000
 80013f2:	f2c4 0001 	movt	r0, #16385	; 0x4001
 80013f6:	f44f 7180 	mov.w	r1, #256	; 0x100
 80013fa:	f7ff fd9d 	bl	8000f38 <GPIO_SetBits>
 80013fe:	f44f 70fa 	mov.w	r0, #500	; 0x1f4
 8001402:	f000 fb51 	bl	8001aa8 <delay_us>
 8001406:	f44f 5080 	mov.w	r0, #4096	; 0x1000
 800140a:	f2c4 0001 	movt	r0, #16385	; 0x4001
 800140e:	f44f 7180 	mov.w	r1, #256	; 0x100
 8001412:	f7ff fd9f 	bl	8000f54 <GPIO_ResetBits>
 8001416:	f04f 4080 	mov.w	r0, #1073741824	; 0x40000000
 800141a:	f04f 0101 	mov.w	r1, #1
 800141e:	f7fe ff73 	bl	8000308 <TIM_ClearITPendingBit>
 8001422:	bd80      	pop	{r7, pc}

08001424 <menu>:
 8001424:	b580      	push	{r7, lr}
 8001426:	af00      	add	r7, sp, #0
 8001428:	e0fa      	b.n	8001620 <menu+0x1fc>
 800142a:	f240 032c 	movw	r3, #44	; 0x2c
 800142e:	f2c2 0300 	movt	r3, #8192	; 0x2000
 8001432:	681b      	ldr	r3, [r3, #0]
 8001434:	2b01      	cmp	r3, #1
 8001436:	d14d      	bne.n	80014d4 <menu+0xb0>
 8001438:	f240 0368 	movw	r3, #104	; 0x68
 800143c:	f2c2 0300 	movt	r3, #8192	; 0x2000
 8001440:	681b      	ldr	r3, [r3, #0]
 8001442:	2b01      	cmp	r3, #1
 8001444:	d146      	bne.n	80014d4 <menu+0xb0>
 8001446:	f7ff fb21 	bl	8000a8c <lcd_clear>
 800144a:	f240 036c 	movw	r3, #108	; 0x6c
 800144e:	f2c2 0300 	movt	r3, #8192	; 0x2000
 8001452:	681a      	ldr	r2, [r3, #0]
 8001454:	f240 0330 	movw	r3, #48	; 0x30
 8001458:	f2c2 0300 	movt	r3, #8192	; 0x2000
 800145c:	f853 3022 	ldr.w	r3, [r3, r2, lsl #2]
 8001460:	4618      	mov	r0, r3
 8001462:	f7ff fafb 	bl	8000a5c <lcd_out>
 8001466:	f04f 0000 	mov.w	r0, #0
 800146a:	f04f 0101 	mov.w	r1, #1
 800146e:	f7ff fad3 	bl	8000a18 <lcd_set_xy>
 8001472:	f240 0374 	movw	r3, #116	; 0x74
 8001476:	f2c2 0300 	movt	r3, #8192	; 0x2000
 800147a:	681b      	ldr	r3, [r3, #0]
 800147c:	4618      	mov	r0, r3
 800147e:	f240 0190 	movw	r1, #144	; 0x90
 8001482:	f2c2 0100 	movt	r1, #8192	; 0x2000
 8001486:	f000 faad 	bl	80019e4 <itoa>
 800148a:	f240 0090 	movw	r0, #144	; 0x90
 800148e:	f2c2 0000 	movt	r0, #8192	; 0x2000
 8001492:	f7ff fae3 	bl	8000a5c <lcd_out>
 8001496:	f04f 0003 	mov.w	r0, #3
 800149a:	f04f 0101 	mov.w	r1, #1
 800149e:	f7ff fabb 	bl	8000a18 <lcd_set_xy>
 80014a2:	f240 0378 	movw	r3, #120	; 0x78
 80014a6:	f2c2 0300 	movt	r3, #8192	; 0x2000
 80014aa:	681b      	ldr	r3, [r3, #0]
 80014ac:	4618      	mov	r0, r3
 80014ae:	f240 0190 	movw	r1, #144	; 0x90
 80014b2:	f2c2 0100 	movt	r1, #8192	; 0x2000
 80014b6:	f000 fa95 	bl	80019e4 <itoa>
 80014ba:	f240 0090 	movw	r0, #144	; 0x90
 80014be:	f2c2 0000 	movt	r0, #8192	; 0x2000
 80014c2:	f7ff facb 	bl	8000a5c <lcd_out>
 80014c6:	f240 032c 	movw	r3, #44	; 0x2c
 80014ca:	f2c2 0300 	movt	r3, #8192	; 0x2000
 80014ce:	f04f 0200 	mov.w	r2, #0
 80014d2:	601a      	str	r2, [r3, #0]
 80014d4:	f44f 6000 	mov.w	r0, #2048	; 0x800
 80014d8:	f000 f8f6 	bl	80016c8 <check_button>
 80014dc:	4603      	mov	r3, r0
 80014de:	2b00      	cmp	r3, #0
 80014e0:	d12c      	bne.n	800153c <menu+0x118>
 80014e2:	f240 0368 	movw	r3, #104	; 0x68
 80014e6:	f2c2 0300 	movt	r3, #8192	; 0x2000
 80014ea:	681b      	ldr	r3, [r3, #0]
 80014ec:	2b01      	cmp	r3, #1
 80014ee:	d125      	bne.n	800153c <menu+0x118>
 80014f0:	f240 036c 	movw	r3, #108	; 0x6c
 80014f4:	f2c2 0300 	movt	r3, #8192	; 0x2000
 80014f8:	681b      	ldr	r3, [r3, #0]
 80014fa:	f103 0201 	add.w	r2, r3, #1
 80014fe:	f240 036c 	movw	r3, #108	; 0x6c
 8001502:	f2c2 0300 	movt	r3, #8192	; 0x2000
 8001506:	601a      	str	r2, [r3, #0]
 8001508:	f240 036c 	movw	r3, #108	; 0x6c
 800150c:	f2c2 0300 	movt	r3, #8192	; 0x2000
 8001510:	681a      	ldr	r2, [r3, #0]
 8001512:	f240 0338 	movw	r3, #56	; 0x38
 8001516:	f2c2 0300 	movt	r3, #8192	; 0x2000
 800151a:	681b      	ldr	r3, [r3, #0]
 800151c:	429a      	cmp	r2, r3
 800151e:	dd06      	ble.n	800152e <menu+0x10a>
 8001520:	f240 036c 	movw	r3, #108	; 0x6c
 8001524:	f2c2 0300 	movt	r3, #8192	; 0x2000
 8001528:	f04f 0200 	mov.w	r2, #0
 800152c:	601a      	str	r2, [r3, #0]
 800152e:	f240 032c 	movw	r3, #44	; 0x2c
 8001532:	f2c2 0300 	movt	r3, #8192	; 0x2000
 8001536:	f04f 0201 	mov.w	r2, #1
 800153a:	601a      	str	r2, [r3, #0]
 800153c:	f44f 6080 	mov.w	r0, #1024	; 0x400
 8001540:	f000 f8c2 	bl	80016c8 <check_button>
 8001544:	4603      	mov	r3, r0
 8001546:	2b00      	cmp	r3, #0
 8001548:	d127      	bne.n	800159a <menu+0x176>
 800154a:	f240 0368 	movw	r3, #104	; 0x68
 800154e:	f2c2 0300 	movt	r3, #8192	; 0x2000
 8001552:	681b      	ldr	r3, [r3, #0]
 8001554:	2b01      	cmp	r3, #1
 8001556:	d120      	bne.n	800159a <menu+0x176>
 8001558:	f240 036c 	movw	r3, #108	; 0x6c
 800155c:	f2c2 0300 	movt	r3, #8192	; 0x2000
 8001560:	681b      	ldr	r3, [r3, #0]
 8001562:	f103 32ff 	add.w	r2, r3, #4294967295
 8001566:	f240 036c 	movw	r3, #108	; 0x6c
 800156a:	f2c2 0300 	movt	r3, #8192	; 0x2000
 800156e:	601a      	str	r2, [r3, #0]
 8001570:	f240 036c 	movw	r3, #108	; 0x6c
 8001574:	f2c2 0300 	movt	r3, #8192	; 0x2000
 8001578:	681b      	ldr	r3, [r3, #0]
 800157a:	2b00      	cmp	r3, #0
 800157c:	da06      	bge.n	800158c <menu+0x168>
 800157e:	f240 036c 	movw	r3, #108	; 0x6c
 8001582:	f2c2 0300 	movt	r3, #8192	; 0x2000
 8001586:	f04f 0201 	mov.w	r2, #1
 800158a:	601a      	str	r2, [r3, #0]
 800158c:	f240 032c 	movw	r3, #44	; 0x2c
 8001590:	f2c2 0300 	movt	r3, #8192	; 0x2000
 8001594:	f04f 0201 	mov.w	r2, #1
 8001598:	601a      	str	r2, [r3, #0]
 800159a:	f44f 5080 	mov.w	r0, #4096	; 0x1000
 800159e:	f000 f893 	bl	80016c8 <check_button>
 80015a2:	4603      	mov	r3, r0
 80015a4:	2b00      	cmp	r3, #0
 80015a6:	d11f      	bne.n	80015e8 <menu+0x1c4>
 80015a8:	f240 0368 	movw	r3, #104	; 0x68
 80015ac:	f2c2 0300 	movt	r3, #8192	; 0x2000
 80015b0:	681b      	ldr	r3, [r3, #0]
 80015b2:	2b01      	cmp	r3, #1
 80015b4:	d118      	bne.n	80015e8 <menu+0x1c4>
 80015b6:	f7ff fa69 	bl	8000a8c <lcd_clear>
 80015ba:	f240 036c 	movw	r3, #108	; 0x6c
 80015be:	f2c2 0300 	movt	r3, #8192	; 0x2000
 80015c2:	681b      	ldr	r3, [r3, #0]
 80015c4:	2b00      	cmp	r3, #0
 80015c6:	d002      	beq.n	80015ce <menu+0x1aa>
 80015c8:	2b01      	cmp	r3, #1
 80015ca:	d003      	beq.n	80015d4 <menu+0x1b0>
 80015cc:	e005      	b.n	80015da <menu+0x1b6>
 80015ce:	f000 f8bf 	bl	8001750 <set_power>
 80015d2:	e002      	b.n	80015da <menu+0x1b6>
 80015d4:	f000 f960 	bl	8001898 <set_impulses>
 80015d8:	bf00      	nop
 80015da:	f240 032c 	movw	r3, #44	; 0x2c
 80015de:	f2c2 0300 	movt	r3, #8192	; 0x2000
 80015e2:	f04f 0201 	mov.w	r2, #1
 80015e6:	601a      	str	r2, [r3, #0]
 80015e8:	f44f 5000 	mov.w	r0, #8192	; 0x2000
 80015ec:	f000 f86c 	bl	80016c8 <check_button>
 80015f0:	4603      	mov	r3, r0
 80015f2:	2b00      	cmp	r3, #0
 80015f4:	d114      	bne.n	8001620 <menu+0x1fc>
 80015f6:	f240 0368 	movw	r3, #104	; 0x68
 80015fa:	f2c2 0300 	movt	r3, #8192	; 0x2000
 80015fe:	681b      	ldr	r3, [r3, #0]
 8001600:	2b01      	cmp	r3, #1
 8001602:	d10d      	bne.n	8001620 <menu+0x1fc>
 8001604:	f240 032c 	movw	r3, #44	; 0x2c
 8001608:	f2c2 0300 	movt	r3, #8192	; 0x2000
 800160c:	f04f 0201 	mov.w	r2, #1
 8001610:	601a      	str	r2, [r3, #0]
 8001612:	f240 036c 	movw	r3, #108	; 0x6c
 8001616:	f2c2 0300 	movt	r3, #8192	; 0x2000
 800161a:	f04f 0200 	mov.w	r2, #0
 800161e:	601a      	str	r2, [r3, #0]
 8001620:	f44f 4080 	mov.w	r0, #16384	; 0x4000
 8001624:	f000 f850 	bl	80016c8 <check_button>
 8001628:	4603      	mov	r3, r0
 800162a:	2b00      	cmp	r3, #0
 800162c:	f47f aefd 	bne.w	800142a <menu+0x6>
 8001630:	bd80      	pop	{r7, pc}
 8001632:	bf00      	nop

08001634 <okey>:
 8001634:	b580      	push	{r7, lr}
 8001636:	af00      	add	r7, sp, #0
 8001638:	f7ff fa28 	bl	8000a8c <lcd_clear>
 800163c:	f240 0378 	movw	r3, #120	; 0x78
 8001640:	f2c2 0300 	movt	r3, #8192	; 0x2000
 8001644:	681b      	ldr	r3, [r3, #0]
 8001646:	4618      	mov	r0, r3
 8001648:	f240 0190 	movw	r1, #144	; 0x90
 800164c:	f2c2 0100 	movt	r1, #8192	; 0x2000
 8001650:	f000 f9c8 	bl	80019e4 <itoa>
 8001654:	f242 2028 	movw	r0, #8744	; 0x2228
 8001658:	f6c0 0000 	movt	r0, #2048	; 0x800
 800165c:	f7ff f9fe 	bl	8000a5c <lcd_out>
 8001660:	f240 0090 	movw	r0, #144	; 0x90
 8001664:	f2c2 0000 	movt	r0, #8192	; 0x2000
 8001668:	f7ff f9f8 	bl	8000a5c <lcd_out>
 800166c:	f04f 0000 	mov.w	r0, #0
 8001670:	f04f 0101 	mov.w	r1, #1
 8001674:	f7ff f9d0 	bl	8000a18 <lcd_set_xy>
 8001678:	f242 2030 	movw	r0, #8752	; 0x2230
 800167c:	f6c0 0000 	movt	r0, #2048	; 0x800
 8001680:	f7ff f9ec 	bl	8000a5c <lcd_out>
 8001684:	f240 0374 	movw	r3, #116	; 0x74
 8001688:	f2c2 0300 	movt	r3, #8192	; 0x2000
 800168c:	681a      	ldr	r2, [r3, #0]
 800168e:	f240 033c 	movw	r3, #60	; 0x3c
 8001692:	f2c2 0300 	movt	r3, #8192	; 0x2000
 8001696:	f853 3022 	ldr.w	r3, [r3, r2, lsl #2]
 800169a:	4618      	mov	r0, r3
 800169c:	f240 0190 	movw	r1, #144	; 0x90
 80016a0:	f2c2 0100 	movt	r1, #8192	; 0x2000
 80016a4:	f000 f99e 	bl	80019e4 <itoa>
 80016a8:	f240 0090 	movw	r0, #144	; 0x90
 80016ac:	f2c2 0000 	movt	r0, #8192	; 0x2000
 80016b0:	f7ff f9d4 	bl	8000a5c <lcd_out>
 80016b4:	bf00      	nop
 80016b6:	f44f 4080 	mov.w	r0, #16384	; 0x4000
 80016ba:	f000 f805 	bl	80016c8 <check_button>
 80016be:	4603      	mov	r3, r0
 80016c0:	2b00      	cmp	r3, #0
 80016c2:	d1f8      	bne.n	80016b6 <okey+0x82>
 80016c4:	bd80      	pop	{r7, pc}
 80016c6:	bf00      	nop

080016c8 <check_button>:
 80016c8:	b580      	push	{r7, lr}
 80016ca:	b082      	sub	sp, #8
 80016cc:	af00      	add	r7, sp, #0
 80016ce:	6078      	str	r0, [r7, #4]
 80016d0:	687b      	ldr	r3, [r7, #4]
 80016d2:	b29b      	uxth	r3, r3
 80016d4:	f44f 6040 	mov.w	r0, #3072	; 0xc00
 80016d8:	f2c4 0001 	movt	r0, #16385	; 0x4001
 80016dc:	4619      	mov	r1, r3
 80016de:	f7ff fc0d 	bl	8000efc <GPIO_ReadInputDataBit>
 80016e2:	4603      	mov	r3, r0
 80016e4:	2b00      	cmp	r3, #0
 80016e6:	d110      	bne.n	800170a <check_button+0x42>
 80016e8:	f04f 000a 	mov.w	r0, #10
 80016ec:	f000 f81a 	bl	8001724 <delay_ms>
 80016f0:	687b      	ldr	r3, [r7, #4]
 80016f2:	b29b      	uxth	r3, r3
 80016f4:	f44f 6040 	mov.w	r0, #3072	; 0xc00
 80016f8:	f2c4 0001 	movt	r0, #16385	; 0x4001
 80016fc:	4619      	mov	r1, r3
 80016fe:	f7ff fbfd 	bl	8000efc <GPIO_ReadInputDataBit>
 8001702:	4603      	mov	r3, r0
 8001704:	2b00      	cmp	r3, #0
 8001706:	d003      	beq.n	8001710 <check_button+0x48>
 8001708:	e005      	b.n	8001716 <check_button+0x4e>
 800170a:	f04f 0300 	mov.w	r3, #0
 800170e:	e004      	b.n	800171a <check_button+0x52>
 8001710:	f04f 0301 	mov.w	r3, #1
 8001714:	e001      	b.n	800171a <check_button+0x52>
 8001716:	f04f 0300 	mov.w	r3, #0
 800171a:	4618      	mov	r0, r3
 800171c:	f107 0708 	add.w	r7, r7, #8
 8001720:	46bd      	mov	sp, r7
 8001722:	bd80      	pop	{r7, pc}

08001724 <delay_ms>:
 8001724:	b480      	push	{r7}
 8001726:	b083      	sub	sp, #12
 8001728:	af00      	add	r7, sp, #0
 800172a:	6078      	str	r0, [r7, #4]
 800172c:	e003      	b.n	8001736 <delay_ms+0x12>
 800172e:	687b      	ldr	r3, [r7, #4]
 8001730:	f103 33ff 	add.w	r3, r3, #4294967295
 8001734:	607b      	str	r3, [r7, #4]
 8001736:	687b      	ldr	r3, [r7, #4]
 8001738:	f44f 52fa 	mov.w	r2, #8000	; 0x1f40
 800173c:	fb02 f303 	mul.w	r3, r2, r3
 8001740:	2b00      	cmp	r3, #0
 8001742:	dcf4      	bgt.n	800172e <delay_ms+0xa>
 8001744:	f107 070c 	add.w	r7, r7, #12
 8001748:	46bd      	mov	sp, r7
 800174a:	bc80      	pop	{r7}
 800174c:	4770      	bx	lr
 800174e:	bf00      	nop

08001750 <set_power>:
 8001750:	b580      	push	{r7, lr}
 8001752:	b084      	sub	sp, #16
 8001754:	af00      	add	r7, sp, #0
 8001756:	f04f 0301 	mov.w	r3, #1
 800175a:	60fb      	str	r3, [r7, #12]
 800175c:	f04f 0300 	mov.w	r3, #0
 8001760:	60bb      	str	r3, [r7, #8]
 8001762:	f04f 0300 	mov.w	r3, #0
 8001766:	607b      	str	r3, [r7, #4]
 8001768:	f240 0368 	movw	r3, #104	; 0x68
 800176c:	f2c2 0300 	movt	r3, #8192	; 0x2000
 8001770:	f04f 0200 	mov.w	r2, #0
 8001774:	601a      	str	r2, [r3, #0]
 8001776:	f7ff f989 	bl	8000a8c <lcd_clear>
 800177a:	f242 2038 	movw	r0, #8760	; 0x2238
 800177e:	f6c0 0000 	movt	r0, #2048	; 0x800
 8001782:	f7ff f96b 	bl	8000a5c <lcd_out>
 8001786:	e070      	b.n	800186a <set_power+0x11a>
 8001788:	68fb      	ldr	r3, [r7, #12]
 800178a:	2b01      	cmp	r3, #1
 800178c:	d112      	bne.n	80017b4 <set_power+0x64>
 800178e:	f04f 0003 	mov.w	r0, #3
 8001792:	f04f 0101 	mov.w	r1, #1
 8001796:	f7ff f93f 	bl	8000a18 <lcd_set_xy>
 800179a:	f240 0300 	movw	r3, #0
 800179e:	f2c2 0300 	movt	r3, #8192	; 0x2000
 80017a2:	68ba      	ldr	r2, [r7, #8]
 80017a4:	f853 3022 	ldr.w	r3, [r3, r2, lsl #2]
 80017a8:	4618      	mov	r0, r3
 80017aa:	f7ff f957 	bl	8000a5c <lcd_out>
 80017ae:	f04f 0300 	mov.w	r3, #0
 80017b2:	60fb      	str	r3, [r7, #12]
 80017b4:	f44f 6080 	mov.w	r0, #1024	; 0x400
 80017b8:	f7ff ff86 	bl	80016c8 <check_button>
 80017bc:	4603      	mov	r3, r0
 80017be:	2b00      	cmp	r3, #0
 80017c0:	d10c      	bne.n	80017dc <set_power+0x8c>
 80017c2:	68bb      	ldr	r3, [r7, #8]
 80017c4:	f103 0301 	add.w	r3, r3, #1
 80017c8:	60bb      	str	r3, [r7, #8]
 80017ca:	68bb      	ldr	r3, [r7, #8]
 80017cc:	2b09      	cmp	r3, #9
 80017ce:	dd02      	ble.n	80017d6 <set_power+0x86>
 80017d0:	f04f 0300 	mov.w	r3, #0
 80017d4:	60bb      	str	r3, [r7, #8]
 80017d6:	f04f 0301 	mov.w	r3, #1
 80017da:	60fb      	str	r3, [r7, #12]
 80017dc:	f44f 6000 	mov.w	r0, #2048	; 0x800
 80017e0:	f7ff ff72 	bl	80016c8 <check_button>
 80017e4:	4603      	mov	r3, r0
 80017e6:	2b00      	cmp	r3, #0
 80017e8:	d10c      	bne.n	8001804 <set_power+0xb4>
 80017ea:	68bb      	ldr	r3, [r7, #8]
 80017ec:	f103 33ff 	add.w	r3, r3, #4294967295
 80017f0:	60bb      	str	r3, [r7, #8]
 80017f2:	68bb      	ldr	r3, [r7, #8]
 80017f4:	2b00      	cmp	r3, #0
 80017f6:	da02      	bge.n	80017fe <set_power+0xae>
 80017f8:	f04f 0309 	mov.w	r3, #9
 80017fc:	60bb      	str	r3, [r7, #8]
 80017fe:	f04f 0301 	mov.w	r3, #1
 8001802:	60fb      	str	r3, [r7, #12]
 8001804:	f44f 5080 	mov.w	r0, #4096	; 0x1000
 8001808:	f7ff ff5e 	bl	80016c8 <check_button>
 800180c:	4603      	mov	r3, r0
 800180e:	2b00      	cmp	r3, #0
 8001810:	d113      	bne.n	800183a <set_power+0xea>
 8001812:	f44f 707a 	mov.w	r0, #1000	; 0x3e8
 8001816:	f7ff ff85 	bl	8001724 <delay_ms>
 800181a:	f44f 5080 	mov.w	r0, #4096	; 0x1000
 800181e:	f7ff ff53 	bl	80016c8 <check_button>
 8001822:	4603      	mov	r3, r0
 8001824:	2b00      	cmp	r3, #0
 8001826:	d108      	bne.n	800183a <set_power+0xea>
 8001828:	f04f 0301 	mov.w	r3, #1
 800182c:	607b      	str	r3, [r7, #4]
 800182e:	f7ff f92d 	bl	8000a8c <lcd_clear>
 8001832:	f44f 707a 	mov.w	r0, #1000	; 0x3e8
 8001836:	f7ff ff75 	bl	8001724 <delay_ms>
 800183a:	f44f 5000 	mov.w	r0, #8192	; 0x2000
 800183e:	f7ff ff43 	bl	80016c8 <check_button>
 8001842:	4603      	mov	r3, r0
 8001844:	2b00      	cmp	r3, #0
 8001846:	d110      	bne.n	800186a <set_power+0x11a>
 8001848:	f240 0374 	movw	r3, #116	; 0x74
 800184c:	f2c2 0300 	movt	r3, #8192	; 0x2000
 8001850:	f04f 0200 	mov.w	r2, #0
 8001854:	601a      	str	r2, [r3, #0]
 8001856:	f240 0368 	movw	r3, #104	; 0x68
 800185a:	f2c2 0300 	movt	r3, #8192	; 0x2000
 800185e:	f04f 0201 	mov.w	r2, #1
 8001862:	601a      	str	r2, [r3, #0]
 8001864:	f04f 0300 	mov.w	r3, #0
 8001868:	e010      	b.n	800188c <set_power+0x13c>
 800186a:	687b      	ldr	r3, [r7, #4]
 800186c:	2b00      	cmp	r3, #0
 800186e:	d08b      	beq.n	8001788 <set_power+0x38>
 8001870:	f240 0374 	movw	r3, #116	; 0x74
 8001874:	f2c2 0300 	movt	r3, #8192	; 0x2000
 8001878:	68ba      	ldr	r2, [r7, #8]
 800187a:	601a      	str	r2, [r3, #0]
 800187c:	f240 0368 	movw	r3, #104	; 0x68
 8001880:	f2c2 0300 	movt	r3, #8192	; 0x2000
 8001884:	f04f 0201 	mov.w	r2, #1
 8001888:	601a      	str	r2, [r3, #0]
 800188a:	68bb      	ldr	r3, [r7, #8]
 800188c:	4618      	mov	r0, r3
 800188e:	f107 0710 	add.w	r7, r7, #16
 8001892:	46bd      	mov	sp, r7
 8001894:	bd80      	pop	{r7, pc}
 8001896:	bf00      	nop

08001898 <set_impulses>:
 8001898:	b580      	push	{r7, lr}
 800189a:	b084      	sub	sp, #16
 800189c:	af00      	add	r7, sp, #0
 800189e:	f04f 0301 	mov.w	r3, #1
 80018a2:	60fb      	str	r3, [r7, #12]
 80018a4:	f04f 0300 	mov.w	r3, #0
 80018a8:	60bb      	str	r3, [r7, #8]
 80018aa:	f240 0368 	movw	r3, #104	; 0x68
 80018ae:	f2c2 0300 	movt	r3, #8192	; 0x2000
 80018b2:	f04f 0200 	mov.w	r2, #0
 80018b6:	601a      	str	r2, [r3, #0]
 80018b8:	f04f 0300 	mov.w	r3, #0
 80018bc:	607b      	str	r3, [r7, #4]
 80018be:	f7ff f8e5 	bl	8000a8c <lcd_clear>
 80018c2:	f242 2014 	movw	r0, #8724	; 0x2214
 80018c6:	f6c0 0000 	movt	r0, #2048	; 0x800
 80018ca:	f7ff f8c7 	bl	8000a5c <lcd_out>
 80018ce:	e073      	b.n	80019b8 <set_impulses+0x120>
 80018d0:	68fb      	ldr	r3, [r7, #12]
 80018d2:	2b01      	cmp	r3, #1
 80018d4:	d115      	bne.n	8001902 <set_impulses+0x6a>
 80018d6:	f04f 0003 	mov.w	r0, #3
 80018da:	f04f 0101 	mov.w	r1, #1
 80018de:	f7ff f89b 	bl	8000a18 <lcd_set_xy>
 80018e2:	68b8      	ldr	r0, [r7, #8]
 80018e4:	f240 0190 	movw	r1, #144	; 0x90
 80018e8:	f2c2 0100 	movt	r1, #8192	; 0x2000
 80018ec:	f000 f87a 	bl	80019e4 <itoa>
 80018f0:	f240 0090 	movw	r0, #144	; 0x90
 80018f4:	f2c2 0000 	movt	r0, #8192	; 0x2000
 80018f8:	f7ff f8b0 	bl	8000a5c <lcd_out>
 80018fc:	f04f 0300 	mov.w	r3, #0
 8001900:	60fb      	str	r3, [r7, #12]
 8001902:	f44f 6080 	mov.w	r0, #1024	; 0x400
 8001906:	f7ff fedf 	bl	80016c8 <check_button>
 800190a:	4603      	mov	r3, r0
 800190c:	2b00      	cmp	r3, #0
 800190e:	d10c      	bne.n	800192a <set_impulses+0x92>
 8001910:	68bb      	ldr	r3, [r7, #8]
 8001912:	f103 0301 	add.w	r3, r3, #1
 8001916:	60bb      	str	r3, [r7, #8]
 8001918:	68bb      	ldr	r3, [r7, #8]
 800191a:	2b63      	cmp	r3, #99	; 0x63
 800191c:	dd02      	ble.n	8001924 <set_impulses+0x8c>
 800191e:	f04f 0300 	mov.w	r3, #0
 8001922:	60bb      	str	r3, [r7, #8]
 8001924:	f04f 0301 	mov.w	r3, #1
 8001928:	60fb      	str	r3, [r7, #12]
 800192a:	f44f 6000 	mov.w	r0, #2048	; 0x800
 800192e:	f7ff fecb 	bl	80016c8 <check_button>
 8001932:	4603      	mov	r3, r0
 8001934:	2b00      	cmp	r3, #0
 8001936:	d10c      	bne.n	8001952 <set_impulses+0xba>
 8001938:	68bb      	ldr	r3, [r7, #8]
 800193a:	f103 33ff 	add.w	r3, r3, #4294967295
 800193e:	60bb      	str	r3, [r7, #8]
 8001940:	68bb      	ldr	r3, [r7, #8]
 8001942:	2b00      	cmp	r3, #0
 8001944:	da02      	bge.n	800194c <set_impulses+0xb4>
 8001946:	f04f 0363 	mov.w	r3, #99	; 0x63
 800194a:	60bb      	str	r3, [r7, #8]
 800194c:	f04f 0301 	mov.w	r3, #1
 8001950:	60fb      	str	r3, [r7, #12]
 8001952:	f44f 5080 	mov.w	r0, #4096	; 0x1000
 8001956:	f7ff feb7 	bl	80016c8 <check_button>
 800195a:	4603      	mov	r3, r0
 800195c:	2b00      	cmp	r3, #0
 800195e:	d113      	bne.n	8001988 <set_impulses+0xf0>
 8001960:	f44f 707a 	mov.w	r0, #1000	; 0x3e8
 8001964:	f7ff fede 	bl	8001724 <delay_ms>
 8001968:	f44f 5080 	mov.w	r0, #4096	; 0x1000
 800196c:	f7ff feac 	bl	80016c8 <check_button>
 8001970:	4603      	mov	r3, r0
 8001972:	2b00      	cmp	r3, #0
 8001974:	d108      	bne.n	8001988 <set_impulses+0xf0>
 8001976:	f04f 0301 	mov.w	r3, #1
 800197a:	607b      	str	r3, [r7, #4]
 800197c:	f7ff f886 	bl	8000a8c <lcd_clear>
 8001980:	f44f 707a 	mov.w	r0, #1000	; 0x3e8
 8001984:	f7ff fece 	bl	8001724 <delay_ms>
 8001988:	f44f 5000 	mov.w	r0, #8192	; 0x2000
 800198c:	f7ff fe9c 	bl	80016c8 <check_button>
 8001990:	4603      	mov	r3, r0
 8001992:	2b00      	cmp	r3, #0
 8001994:	d110      	bne.n	80019b8 <set_impulses+0x120>
 8001996:	f240 0378 	movw	r3, #120	; 0x78
 800199a:	f2c2 0300 	movt	r3, #8192	; 0x2000
 800199e:	f04f 0200 	mov.w	r2, #0
 80019a2:	601a      	str	r2, [r3, #0]
 80019a4:	f240 0368 	movw	r3, #104	; 0x68
 80019a8:	f2c2 0300 	movt	r3, #8192	; 0x2000
 80019ac:	f04f 0201 	mov.w	r2, #1
 80019b0:	601a      	str	r2, [r3, #0]
 80019b2:	f04f 0300 	mov.w	r3, #0
 80019b6:	e010      	b.n	80019da <set_impulses+0x142>
 80019b8:	687b      	ldr	r3, [r7, #4]
 80019ba:	2b00      	cmp	r3, #0
 80019bc:	d088      	beq.n	80018d0 <set_impulses+0x38>
 80019be:	f240 0368 	movw	r3, #104	; 0x68
 80019c2:	f2c2 0300 	movt	r3, #8192	; 0x2000
 80019c6:	f04f 0201 	mov.w	r2, #1
 80019ca:	601a      	str	r2, [r3, #0]
 80019cc:	f240 0378 	movw	r3, #120	; 0x78
 80019d0:	f2c2 0300 	movt	r3, #8192	; 0x2000
 80019d4:	68ba      	ldr	r2, [r7, #8]
 80019d6:	601a      	str	r2, [r3, #0]
 80019d8:	68bb      	ldr	r3, [r7, #8]
 80019da:	4618      	mov	r0, r3
 80019dc:	f107 0710 	add.w	r7, r7, #16
 80019e0:	46bd      	mov	sp, r7
 80019e2:	bd80      	pop	{r7, pc}

080019e4 <itoa>:
 80019e4:	b4b0      	push	{r4, r5, r7}
 80019e6:	b085      	sub	sp, #20
 80019e8:	af00      	add	r7, sp, #0
 80019ea:	6078      	str	r0, [r7, #4]
 80019ec:	6039      	str	r1, [r7, #0]
 80019ee:	f04f 0300 	mov.w	r3, #0
 80019f2:	60fb      	str	r3, [r7, #12]
 80019f4:	f04f 0300 	mov.w	r3, #0
 80019f8:	60bb      	str	r3, [r7, #8]
 80019fa:	687b      	ldr	r3, [r7, #4]
 80019fc:	2b00      	cmp	r3, #0
 80019fe:	da0d      	bge.n	8001a1c <itoa+0x38>
 8001a00:	68bb      	ldr	r3, [r7, #8]
 8001a02:	683a      	ldr	r2, [r7, #0]
 8001a04:	18d3      	adds	r3, r2, r3
 8001a06:	f04f 022d 	mov.w	r2, #45	; 0x2d
 8001a0a:	701a      	strb	r2, [r3, #0]
 8001a0c:	68bb      	ldr	r3, [r7, #8]
 8001a0e:	f103 0301 	add.w	r3, r3, #1
 8001a12:	60bb      	str	r3, [r7, #8]
 8001a14:	687b      	ldr	r3, [r7, #4]
 8001a16:	f1c3 0300 	rsb	r3, r3, #0
 8001a1a:	607b      	str	r3, [r7, #4]
 8001a1c:	687b      	ldr	r3, [r7, #4]
 8001a1e:	2b00      	cmp	r3, #0
 8001a20:	d10a      	bne.n	8001a38 <itoa+0x54>
 8001a22:	68bb      	ldr	r3, [r7, #8]
 8001a24:	683a      	ldr	r2, [r7, #0]
 8001a26:	18d3      	adds	r3, r2, r3
 8001a28:	f04f 0230 	mov.w	r2, #48	; 0x30
 8001a2c:	701a      	strb	r2, [r3, #0]
 8001a2e:	68bb      	ldr	r3, [r7, #8]
 8001a30:	f103 0301 	add.w	r3, r3, #1
 8001a34:	60bb      	str	r3, [r7, #8]
 8001a36:	e02c      	b.n	8001a92 <itoa+0xae>
 8001a38:	f242 7410 	movw	r4, #10000	; 0x2710
 8001a3c:	e027      	b.n	8001a8e <itoa+0xaa>
 8001a3e:	687b      	ldr	r3, [r7, #4]
 8001a40:	fb93 f5f4 	sdiv	r5, r3, r4
 8001a44:	68fb      	ldr	r3, [r7, #12]
 8001a46:	2b00      	cmp	r3, #0
 8001a48:	d101      	bne.n	8001a4e <itoa+0x6a>
 8001a4a:	2d00      	cmp	r5, #0
 8001a4c:	dd0e      	ble.n	8001a6c <itoa+0x88>
 8001a4e:	68bb      	ldr	r3, [r7, #8]
 8001a50:	683a      	ldr	r2, [r7, #0]
 8001a52:	18d3      	adds	r3, r2, r3
 8001a54:	b2ea      	uxtb	r2, r5
 8001a56:	f102 0230 	add.w	r2, r2, #48	; 0x30
 8001a5a:	b2d2      	uxtb	r2, r2
 8001a5c:	701a      	strb	r2, [r3, #0]
 8001a5e:	68bb      	ldr	r3, [r7, #8]
 8001a60:	f103 0301 	add.w	r3, r3, #1
 8001a64:	60bb      	str	r3, [r7, #8]
 8001a66:	f04f 0301 	mov.w	r3, #1
 8001a6a:	60fb      	str	r3, [r7, #12]
 8001a6c:	fb04 f305 	mul.w	r3, r4, r5
 8001a70:	687a      	ldr	r2, [r7, #4]
 8001a72:	1ad3      	subs	r3, r2, r3
 8001a74:	607b      	str	r3, [r7, #4]
 8001a76:	f246 6367 	movw	r3, #26215	; 0x6667
 8001a7a:	f2c6 6366 	movt	r3, #26214	; 0x6666
 8001a7e:	fb83 2304 	smull	r2, r3, r3, r4
 8001a82:	ea4f 02a3 	mov.w	r2, r3, asr #2
 8001a86:	ea4f 73e4 	mov.w	r3, r4, asr #31
 8001a8a:	1ad3      	subs	r3, r2, r3
 8001a8c:	461c      	mov	r4, r3
 8001a8e:	2c00      	cmp	r4, #0
 8001a90:	dcd5      	bgt.n	8001a3e <itoa+0x5a>
 8001a92:	68bb      	ldr	r3, [r7, #8]
 8001a94:	683a      	ldr	r2, [r7, #0]
 8001a96:	18d3      	adds	r3, r2, r3
 8001a98:	f04f 0200 	mov.w	r2, #0
 8001a9c:	701a      	strb	r2, [r3, #0]
 8001a9e:	f107 0714 	add.w	r7, r7, #20
 8001aa2:	46bd      	mov	sp, r7
 8001aa4:	bcb0      	pop	{r4, r5, r7}
 8001aa6:	4770      	bx	lr

08001aa8 <delay_us>:
 8001aa8:	b480      	push	{r7}
 8001aaa:	b083      	sub	sp, #12
 8001aac:	af00      	add	r7, sp, #0
 8001aae:	6078      	str	r0, [r7, #4]
 8001ab0:	e003      	b.n	8001aba <delay_us+0x12>
 8001ab2:	687b      	ldr	r3, [r7, #4]
 8001ab4:	f103 33ff 	add.w	r3, r3, #4294967295
 8001ab8:	607b      	str	r3, [r7, #4]
 8001aba:	687b      	ldr	r3, [r7, #4]
 8001abc:	ea4f 03c3 	mov.w	r3, r3, lsl #3
 8001ac0:	2b00      	cmp	r3, #0
 8001ac2:	dcf6      	bgt.n	8001ab2 <delay_us+0xa>
 8001ac4:	f107 070c 	add.w	r7, r7, #12
 8001ac8:	46bd      	mov	sp, r7
 8001aca:	bc80      	pop	{r7}
 8001acc:	4770      	bx	lr
 8001ace:	bf00      	nop

08001ad0 <RCC_ADCCLKConfig>:
 8001ad0:	b480      	push	{r7}
 8001ad2:	b085      	sub	sp, #20
 8001ad4:	af00      	add	r7, sp, #0
 8001ad6:	6078      	str	r0, [r7, #4]
 8001ad8:	f04f 0300 	mov.w	r3, #0
 8001adc:	60fb      	str	r3, [r7, #12]
 8001ade:	f44f 5380 	mov.w	r3, #4096	; 0x1000
 8001ae2:	f2c4 0302 	movt	r3, #16386	; 0x4002
 8001ae6:	685b      	ldr	r3, [r3, #4]
 8001ae8:	60fb      	str	r3, [r7, #12]
 8001aea:	68fb      	ldr	r3, [r7, #12]
 8001aec:	f423 4340 	bic.w	r3, r3, #49152	; 0xc000
 8001af0:	60fb      	str	r3, [r7, #12]
 8001af2:	68fa      	ldr	r2, [r7, #12]
 8001af4:	687b      	ldr	r3, [r7, #4]
 8001af6:	4313      	orrs	r3, r2
 8001af8:	60fb      	str	r3, [r7, #12]
 8001afa:	f44f 5380 	mov.w	r3, #4096	; 0x1000
 8001afe:	f2c4 0302 	movt	r3, #16386	; 0x4002
 8001b02:	68fa      	ldr	r2, [r7, #12]
 8001b04:	605a      	str	r2, [r3, #4]
 8001b06:	f107 0714 	add.w	r7, r7, #20
 8001b0a:	46bd      	mov	sp, r7
 8001b0c:	bc80      	pop	{r7}
 8001b0e:	4770      	bx	lr

08001b10 <RCC_APB2PeriphClockCmd>:
 8001b10:	b480      	push	{r7}
 8001b12:	b083      	sub	sp, #12
 8001b14:	af00      	add	r7, sp, #0
 8001b16:	6078      	str	r0, [r7, #4]
 8001b18:	460b      	mov	r3, r1
 8001b1a:	70fb      	strb	r3, [r7, #3]
 8001b1c:	78fb      	ldrb	r3, [r7, #3]
 8001b1e:	2b00      	cmp	r3, #0
 8001b20:	d00d      	beq.n	8001b3e <RCC_APB2PeriphClockCmd+0x2e>
 8001b22:	f44f 5380 	mov.w	r3, #4096	; 0x1000
 8001b26:	f2c4 0302 	movt	r3, #16386	; 0x4002
 8001b2a:	f44f 5280 	mov.w	r2, #4096	; 0x1000
 8001b2e:	f2c4 0202 	movt	r2, #16386	; 0x4002
 8001b32:	6992      	ldr	r2, [r2, #24]
 8001b34:	4611      	mov	r1, r2
 8001b36:	687a      	ldr	r2, [r7, #4]
 8001b38:	430a      	orrs	r2, r1
 8001b3a:	619a      	str	r2, [r3, #24]
 8001b3c:	e00e      	b.n	8001b5c <RCC_APB2PeriphClockCmd+0x4c>
 8001b3e:	f44f 5380 	mov.w	r3, #4096	; 0x1000
 8001b42:	f2c4 0302 	movt	r3, #16386	; 0x4002
 8001b46:	f44f 5280 	mov.w	r2, #4096	; 0x1000
 8001b4a:	f2c4 0202 	movt	r2, #16386	; 0x4002
 8001b4e:	6992      	ldr	r2, [r2, #24]
 8001b50:	4611      	mov	r1, r2
 8001b52:	687a      	ldr	r2, [r7, #4]
 8001b54:	ea6f 0202 	mvn.w	r2, r2
 8001b58:	400a      	ands	r2, r1
 8001b5a:	619a      	str	r2, [r3, #24]
 8001b5c:	f107 070c 	add.w	r7, r7, #12
 8001b60:	46bd      	mov	sp, r7
 8001b62:	bc80      	pop	{r7}
 8001b64:	4770      	bx	lr
 8001b66:	bf00      	nop

08001b68 <RCC_APB1PeriphClockCmd>:
 8001b68:	b480      	push	{r7}
 8001b6a:	b083      	sub	sp, #12
 8001b6c:	af00      	add	r7, sp, #0
 8001b6e:	6078      	str	r0, [r7, #4]
 8001b70:	460b      	mov	r3, r1
 8001b72:	70fb      	strb	r3, [r7, #3]
 8001b74:	78fb      	ldrb	r3, [r7, #3]
 8001b76:	2b00      	cmp	r3, #0
 8001b78:	d00d      	beq.n	8001b96 <RCC_APB1PeriphClockCmd+0x2e>
 8001b7a:	f44f 5380 	mov.w	r3, #4096	; 0x1000
 8001b7e:	f2c4 0302 	movt	r3, #16386	; 0x4002
 8001b82:	f44f 5280 	mov.w	r2, #4096	; 0x1000
 8001b86:	f2c4 0202 	movt	r2, #16386	; 0x4002
 8001b8a:	69d2      	ldr	r2, [r2, #28]
 8001b8c:	4611      	mov	r1, r2
 8001b8e:	687a      	ldr	r2, [r7, #4]
 8001b90:	430a      	orrs	r2, r1
 8001b92:	61da      	str	r2, [r3, #28]
 8001b94:	e00e      	b.n	8001bb4 <RCC_APB1PeriphClockCmd+0x4c>
 8001b96:	f44f 5380 	mov.w	r3, #4096	; 0x1000
 8001b9a:	f2c4 0302 	movt	r3, #16386	; 0x4002
 8001b9e:	f44f 5280 	mov.w	r2, #4096	; 0x1000
 8001ba2:	f2c4 0202 	movt	r2, #16386	; 0x4002
 8001ba6:	69d2      	ldr	r2, [r2, #28]
 8001ba8:	4611      	mov	r1, r2
 8001baa:	687a      	ldr	r2, [r7, #4]
 8001bac:	ea6f 0202 	mvn.w	r2, r2
 8001bb0:	400a      	ands	r2, r1
 8001bb2:	61da      	str	r2, [r3, #28]
 8001bb4:	f107 070c 	add.w	r7, r7, #12
 8001bb8:	46bd      	mov	sp, r7
 8001bba:	bc80      	pop	{r7}
 8001bbc:	4770      	bx	lr
 8001bbe:	bf00      	nop

08001bc0 <EXTI_DeInit>:
 8001bc0:	b480      	push	{r7}
 8001bc2:	af00      	add	r7, sp, #0
 8001bc4:	f44f 6380 	mov.w	r3, #1024	; 0x400
 8001bc8:	f2c4 0301 	movt	r3, #16385	; 0x4001
 8001bcc:	f04f 0200 	mov.w	r2, #0
 8001bd0:	601a      	str	r2, [r3, #0]
 8001bd2:	f44f 6380 	mov.w	r3, #1024	; 0x400
 8001bd6:	f2c4 0301 	movt	r3, #16385	; 0x4001
 8001bda:	f04f 0200 	mov.w	r2, #0
 8001bde:	605a      	str	r2, [r3, #4]
 8001be0:	f44f 6380 	mov.w	r3, #1024	; 0x400
 8001be4:	f2c4 0301 	movt	r3, #16385	; 0x4001
 8001be8:	f04f 0200 	mov.w	r2, #0
 8001bec:	609a      	str	r2, [r3, #8]
 8001bee:	f44f 6380 	mov.w	r3, #1024	; 0x400
 8001bf2:	f2c4 0301 	movt	r3, #16385	; 0x4001
 8001bf6:	f04f 0200 	mov.w	r2, #0
 8001bfa:	60da      	str	r2, [r3, #12]
 8001bfc:	f44f 6380 	mov.w	r3, #1024	; 0x400
 8001c00:	f2c4 0301 	movt	r3, #16385	; 0x4001
 8001c04:	f64f 72ff 	movw	r2, #65535	; 0xffff
 8001c08:	f2c0 020f 	movt	r2, #15
 8001c0c:	615a      	str	r2, [r3, #20]
 8001c0e:	46bd      	mov	sp, r7
 8001c10:	bc80      	pop	{r7}
 8001c12:	4770      	bx	lr

08001c14 <EXTI_Init>:
 8001c14:	b480      	push	{r7}
 8001c16:	b085      	sub	sp, #20
 8001c18:	af00      	add	r7, sp, #0
 8001c1a:	6078      	str	r0, [r7, #4]
 8001c1c:	f04f 0300 	mov.w	r3, #0
 8001c20:	60fb      	str	r3, [r7, #12]
 8001c22:	f44f 6380 	mov.w	r3, #1024	; 0x400
 8001c26:	f2c4 0301 	movt	r3, #16385	; 0x4001
 8001c2a:	60fb      	str	r3, [r7, #12]
 8001c2c:	687b      	ldr	r3, [r7, #4]
 8001c2e:	799b      	ldrb	r3, [r3, #6]
 8001c30:	2b00      	cmp	r3, #0
 8001c32:	d07e      	beq.n	8001d32 <EXTI_Init+0x11e>
 8001c34:	f44f 6380 	mov.w	r3, #1024	; 0x400
 8001c38:	f2c4 0301 	movt	r3, #16385	; 0x4001
 8001c3c:	f44f 6280 	mov.w	r2, #1024	; 0x400
 8001c40:	f2c4 0201 	movt	r2, #16385	; 0x4001
 8001c44:	6812      	ldr	r2, [r2, #0]
 8001c46:	4611      	mov	r1, r2
 8001c48:	687a      	ldr	r2, [r7, #4]
 8001c4a:	6812      	ldr	r2, [r2, #0]
 8001c4c:	ea6f 0202 	mvn.w	r2, r2
 8001c50:	400a      	ands	r2, r1
 8001c52:	601a      	str	r2, [r3, #0]
 8001c54:	f44f 6380 	mov.w	r3, #1024	; 0x400
 8001c58:	f2c4 0301 	movt	r3, #16385	; 0x4001
 8001c5c:	f44f 6280 	mov.w	r2, #1024	; 0x400
 8001c60:	f2c4 0201 	movt	r2, #16385	; 0x4001
 8001c64:	6852      	ldr	r2, [r2, #4]
 8001c66:	4611      	mov	r1, r2
 8001c68:	687a      	ldr	r2, [r7, #4]
 8001c6a:	6812      	ldr	r2, [r2, #0]
 8001c6c:	ea6f 0202 	mvn.w	r2, r2
 8001c70:	400a      	ands	r2, r1
 8001c72:	605a      	str	r2, [r3, #4]
 8001c74:	687b      	ldr	r3, [r7, #4]
 8001c76:	791b      	ldrb	r3, [r3, #4]
 8001c78:	68fa      	ldr	r2, [r7, #12]
 8001c7a:	18d3      	adds	r3, r2, r3
 8001c7c:	60fb      	str	r3, [r7, #12]
 8001c7e:	68fb      	ldr	r3, [r7, #12]
 8001c80:	68fa      	ldr	r2, [r7, #12]
 8001c82:	6811      	ldr	r1, [r2, #0]
 8001c84:	687a      	ldr	r2, [r7, #4]
 8001c86:	6812      	ldr	r2, [r2, #0]
 8001c88:	430a      	orrs	r2, r1
 8001c8a:	601a      	str	r2, [r3, #0]
 8001c8c:	f44f 6380 	mov.w	r3, #1024	; 0x400
 8001c90:	f2c4 0301 	movt	r3, #16385	; 0x4001
 8001c94:	f44f 6280 	mov.w	r2, #1024	; 0x400
 8001c98:	f2c4 0201 	movt	r2, #16385	; 0x4001
 8001c9c:	6892      	ldr	r2, [r2, #8]
 8001c9e:	4611      	mov	r1, r2
 8001ca0:	687a      	ldr	r2, [r7, #4]
 8001ca2:	6812      	ldr	r2, [r2, #0]
 8001ca4:	ea6f 0202 	mvn.w	r2, r2
 8001ca8:	400a      	ands	r2, r1
 8001caa:	609a      	str	r2, [r3, #8]
 8001cac:	f44f 6380 	mov.w	r3, #1024	; 0x400
 8001cb0:	f2c4 0301 	movt	r3, #16385	; 0x4001
 8001cb4:	f44f 6280 	mov.w	r2, #1024	; 0x400
 8001cb8:	f2c4 0201 	movt	r2, #16385	; 0x4001
 8001cbc:	68d2      	ldr	r2, [r2, #12]
 8001cbe:	4611      	mov	r1, r2
 8001cc0:	687a      	ldr	r2, [r7, #4]
 8001cc2:	6812      	ldr	r2, [r2, #0]
 8001cc4:	ea6f 0202 	mvn.w	r2, r2
 8001cc8:	400a      	ands	r2, r1
 8001cca:	60da      	str	r2, [r3, #12]
 8001ccc:	687b      	ldr	r3, [r7, #4]
 8001cce:	795b      	ldrb	r3, [r3, #5]
 8001cd0:	2b10      	cmp	r3, #16
 8001cd2:	d11c      	bne.n	8001d0e <EXTI_Init+0xfa>
 8001cd4:	f44f 6380 	mov.w	r3, #1024	; 0x400
 8001cd8:	f2c4 0301 	movt	r3, #16385	; 0x4001
 8001cdc:	f44f 6280 	mov.w	r2, #1024	; 0x400
 8001ce0:	f2c4 0201 	movt	r2, #16385	; 0x4001
 8001ce4:	6892      	ldr	r2, [r2, #8]
 8001ce6:	4611      	mov	r1, r2
 8001ce8:	687a      	ldr	r2, [r7, #4]
 8001cea:	6812      	ldr	r2, [r2, #0]
 8001cec:	430a      	orrs	r2, r1
 8001cee:	609a      	str	r2, [r3, #8]
 8001cf0:	f44f 6380 	mov.w	r3, #1024	; 0x400
 8001cf4:	f2c4 0301 	movt	r3, #16385	; 0x4001
 8001cf8:	f44f 6280 	mov.w	r2, #1024	; 0x400
 8001cfc:	f2c4 0201 	movt	r2, #16385	; 0x4001
 8001d00:	68d2      	ldr	r2, [r2, #12]
 8001d02:	4611      	mov	r1, r2
 8001d04:	687a      	ldr	r2, [r7, #4]
 8001d06:	6812      	ldr	r2, [r2, #0]
 8001d08:	430a      	orrs	r2, r1
 8001d0a:	60da      	str	r2, [r3, #12]
 8001d0c:	e01f      	b.n	8001d4e <EXTI_Init+0x13a>
 8001d0e:	f44f 6380 	mov.w	r3, #1024	; 0x400
 8001d12:	f2c4 0301 	movt	r3, #16385	; 0x4001
 8001d16:	60fb      	str	r3, [r7, #12]
 8001d18:	687b      	ldr	r3, [r7, #4]
 8001d1a:	795b      	ldrb	r3, [r3, #5]
 8001d1c:	68fa      	ldr	r2, [r7, #12]
 8001d1e:	18d3      	adds	r3, r2, r3
 8001d20:	60fb      	str	r3, [r7, #12]
 8001d22:	68fb      	ldr	r3, [r7, #12]
 8001d24:	68fa      	ldr	r2, [r7, #12]
 8001d26:	6811      	ldr	r1, [r2, #0]
 8001d28:	687a      	ldr	r2, [r7, #4]
 8001d2a:	6812      	ldr	r2, [r2, #0]
 8001d2c:	430a      	orrs	r2, r1
 8001d2e:	601a      	str	r2, [r3, #0]
 8001d30:	e00d      	b.n	8001d4e <EXTI_Init+0x13a>
 8001d32:	687b      	ldr	r3, [r7, #4]
 8001d34:	791b      	ldrb	r3, [r3, #4]
 8001d36:	68fa      	ldr	r2, [r7, #12]
 8001d38:	18d3      	adds	r3, r2, r3
 8001d3a:	60fb      	str	r3, [r7, #12]
 8001d3c:	68fb      	ldr	r3, [r7, #12]
 8001d3e:	68fa      	ldr	r2, [r7, #12]
 8001d40:	6811      	ldr	r1, [r2, #0]
 8001d42:	687a      	ldr	r2, [r7, #4]
 8001d44:	6812      	ldr	r2, [r2, #0]
 8001d46:	ea6f 0202 	mvn.w	r2, r2
 8001d4a:	400a      	ands	r2, r1
 8001d4c:	601a      	str	r2, [r3, #0]
 8001d4e:	f107 0714 	add.w	r7, r7, #20
 8001d52:	46bd      	mov	sp, r7
 8001d54:	bc80      	pop	{r7}
 8001d56:	4770      	bx	lr

08001d58 <EXTI_ClearITPendingBit>:
 8001d58:	b480      	push	{r7}
 8001d5a:	b083      	sub	sp, #12
 8001d5c:	af00      	add	r7, sp, #0
 8001d5e:	6078      	str	r0, [r7, #4]
 8001d60:	f44f 6380 	mov.w	r3, #1024	; 0x400
 8001d64:	f2c4 0301 	movt	r3, #16385	; 0x4001
 8001d68:	687a      	ldr	r2, [r7, #4]
 8001d6a:	615a      	str	r2, [r3, #20]
 8001d6c:	f107 070c 	add.w	r7, r7, #12
 8001d70:	46bd      	mov	sp, r7
 8001d72:	bc80      	pop	{r7}
 8001d74:	4770      	bx	lr
 8001d76:	bf00      	nop

08001d78 <ADC_Init>:
 8001d78:	b480      	push	{r7}
 8001d7a:	b085      	sub	sp, #20
 8001d7c:	af00      	add	r7, sp, #0
 8001d7e:	6078      	str	r0, [r7, #4]
 8001d80:	6039      	str	r1, [r7, #0]
 8001d82:	f04f 0300 	mov.w	r3, #0
 8001d86:	60fb      	str	r3, [r7, #12]
 8001d88:	f04f 0300 	mov.w	r3, #0
 8001d8c:	72fb      	strb	r3, [r7, #11]
 8001d8e:	687b      	ldr	r3, [r7, #4]
 8001d90:	685b      	ldr	r3, [r3, #4]
 8001d92:	60fb      	str	r3, [r7, #12]
 8001d94:	68fb      	ldr	r3, [r7, #12]
 8001d96:	f423 2370 	bic.w	r3, r3, #983040	; 0xf0000
 8001d9a:	f423 7380 	bic.w	r3, r3, #256	; 0x100
 8001d9e:	60fb      	str	r3, [r7, #12]
 8001da0:	683b      	ldr	r3, [r7, #0]
 8001da2:	681a      	ldr	r2, [r3, #0]
 8001da4:	683b      	ldr	r3, [r7, #0]
 8001da6:	791b      	ldrb	r3, [r3, #4]
 8001da8:	ea4f 2303 	mov.w	r3, r3, lsl #8
 8001dac:	4313      	orrs	r3, r2
 8001dae:	68fa      	ldr	r2, [r7, #12]
 8001db0:	4313      	orrs	r3, r2
 8001db2:	60fb      	str	r3, [r7, #12]
 8001db4:	687b      	ldr	r3, [r7, #4]
 8001db6:	68fa      	ldr	r2, [r7, #12]
 8001db8:	605a      	str	r2, [r3, #4]
 8001dba:	687b      	ldr	r3, [r7, #4]
 8001dbc:	689b      	ldr	r3, [r3, #8]
 8001dbe:	60fb      	str	r3, [r7, #12]
 8001dc0:	68fa      	ldr	r2, [r7, #12]
 8001dc2:	f24f 73fd 	movw	r3, #63485	; 0xf7fd
 8001dc6:	f6cf 73f1 	movt	r3, #65521	; 0xfff1
 8001dca:	4013      	ands	r3, r2
 8001dcc:	60fb      	str	r3, [r7, #12]
 8001dce:	683b      	ldr	r3, [r7, #0]
 8001dd0:	68da      	ldr	r2, [r3, #12]
 8001dd2:	683b      	ldr	r3, [r7, #0]
 8001dd4:	689b      	ldr	r3, [r3, #8]
 8001dd6:	431a      	orrs	r2, r3
 8001dd8:	683b      	ldr	r3, [r7, #0]
 8001dda:	795b      	ldrb	r3, [r3, #5]
 8001ddc:	ea4f 0343 	mov.w	r3, r3, lsl #1
 8001de0:	4313      	orrs	r3, r2
 8001de2:	68fa      	ldr	r2, [r7, #12]
 8001de4:	4313      	orrs	r3, r2
 8001de6:	60fb      	str	r3, [r7, #12]
 8001de8:	687b      	ldr	r3, [r7, #4]
 8001dea:	68fa      	ldr	r2, [r7, #12]
 8001dec:	609a      	str	r2, [r3, #8]
 8001dee:	687b      	ldr	r3, [r7, #4]
 8001df0:	6adb      	ldr	r3, [r3, #44]	; 0x2c
 8001df2:	60fb      	str	r3, [r7, #12]
 8001df4:	68fb      	ldr	r3, [r7, #12]
 8001df6:	f423 0370 	bic.w	r3, r3, #15728640	; 0xf00000
 8001dfa:	60fb      	str	r3, [r7, #12]
 8001dfc:	683b      	ldr	r3, [r7, #0]
 8001dfe:	7c1b      	ldrb	r3, [r3, #16]
 8001e00:	f103 33ff 	add.w	r3, r3, #4294967295
 8001e04:	b2da      	uxtb	r2, r3
 8001e06:	7afb      	ldrb	r3, [r7, #11]
 8001e08:	4313      	orrs	r3, r2
 8001e0a:	72fb      	strb	r3, [r7, #11]
 8001e0c:	7afb      	ldrb	r3, [r7, #11]
 8001e0e:	ea4f 5303 	mov.w	r3, r3, lsl #20
 8001e12:	68fa      	ldr	r2, [r7, #12]
 8001e14:	4313      	orrs	r3, r2
 8001e16:	60fb      	str	r3, [r7, #12]
 8001e18:	687b      	ldr	r3, [r7, #4]
 8001e1a:	68fa      	ldr	r2, [r7, #12]
 8001e1c:	62da      	str	r2, [r3, #44]	; 0x2c
 8001e1e:	f107 0714 	add.w	r7, r7, #20
 8001e22:	46bd      	mov	sp, r7
 8001e24:	bc80      	pop	{r7}
 8001e26:	4770      	bx	lr

08001e28 <ADC_Cmd>:
 8001e28:	b480      	push	{r7}
 8001e2a:	b083      	sub	sp, #12
 8001e2c:	af00      	add	r7, sp, #0
 8001e2e:	6078      	str	r0, [r7, #4]
 8001e30:	460b      	mov	r3, r1
 8001e32:	70fb      	strb	r3, [r7, #3]
 8001e34:	78fb      	ldrb	r3, [r7, #3]
 8001e36:	2b00      	cmp	r3, #0
 8001e38:	d006      	beq.n	8001e48 <ADC_Cmd+0x20>
 8001e3a:	687b      	ldr	r3, [r7, #4]
 8001e3c:	689b      	ldr	r3, [r3, #8]
 8001e3e:	f043 0201 	orr.w	r2, r3, #1
 8001e42:	687b      	ldr	r3, [r7, #4]
 8001e44:	609a      	str	r2, [r3, #8]
 8001e46:	e005      	b.n	8001e54 <ADC_Cmd+0x2c>
 8001e48:	687b      	ldr	r3, [r7, #4]
 8001e4a:	689b      	ldr	r3, [r3, #8]
 8001e4c:	f023 0201 	bic.w	r2, r3, #1
 8001e50:	687b      	ldr	r3, [r7, #4]
 8001e52:	609a      	str	r2, [r3, #8]
 8001e54:	f107 070c 	add.w	r7, r7, #12
 8001e58:	46bd      	mov	sp, r7
 8001e5a:	bc80      	pop	{r7}
 8001e5c:	4770      	bx	lr
 8001e5e:	bf00      	nop

08001e60 <ADC_ResetCalibration>:
 8001e60:	b480      	push	{r7}
 8001e62:	b083      	sub	sp, #12
 8001e64:	af00      	add	r7, sp, #0
 8001e66:	6078      	str	r0, [r7, #4]
 8001e68:	687b      	ldr	r3, [r7, #4]
 8001e6a:	689b      	ldr	r3, [r3, #8]
 8001e6c:	f043 0208 	orr.w	r2, r3, #8
 8001e70:	687b      	ldr	r3, [r7, #4]
 8001e72:	609a      	str	r2, [r3, #8]
 8001e74:	f107 070c 	add.w	r7, r7, #12
 8001e78:	46bd      	mov	sp, r7
 8001e7a:	bc80      	pop	{r7}
 8001e7c:	4770      	bx	lr
 8001e7e:	bf00      	nop

08001e80 <ADC_GetResetCalibrationStatus>:
 8001e80:	b480      	push	{r7}
 8001e82:	b085      	sub	sp, #20
 8001e84:	af00      	add	r7, sp, #0
 8001e86:	6078      	str	r0, [r7, #4]
 8001e88:	f04f 0300 	mov.w	r3, #0
 8001e8c:	73fb      	strb	r3, [r7, #15]
 8001e8e:	687b      	ldr	r3, [r7, #4]
 8001e90:	689b      	ldr	r3, [r3, #8]
 8001e92:	f003 0308 	and.w	r3, r3, #8
 8001e96:	2b00      	cmp	r3, #0
 8001e98:	d003      	beq.n	8001ea2 <ADC_GetResetCalibrationStatus+0x22>
 8001e9a:	f04f 0301 	mov.w	r3, #1
 8001e9e:	73fb      	strb	r3, [r7, #15]
 8001ea0:	e002      	b.n	8001ea8 <ADC_GetResetCalibrationStatus+0x28>
 8001ea2:	f04f 0300 	mov.w	r3, #0
 8001ea6:	73fb      	strb	r3, [r7, #15]
 8001ea8:	7bfb      	ldrb	r3, [r7, #15]
 8001eaa:	4618      	mov	r0, r3
 8001eac:	f107 0714 	add.w	r7, r7, #20
 8001eb0:	46bd      	mov	sp, r7
 8001eb2:	bc80      	pop	{r7}
 8001eb4:	4770      	bx	lr
 8001eb6:	bf00      	nop

08001eb8 <ADC_StartCalibration>:
 8001eb8:	b480      	push	{r7}
 8001eba:	b083      	sub	sp, #12
 8001ebc:	af00      	add	r7, sp, #0
 8001ebe:	6078      	str	r0, [r7, #4]
 8001ec0:	687b      	ldr	r3, [r7, #4]
 8001ec2:	689b      	ldr	r3, [r3, #8]
 8001ec4:	f043 0204 	orr.w	r2, r3, #4
 8001ec8:	687b      	ldr	r3, [r7, #4]
 8001eca:	609a      	str	r2, [r3, #8]
 8001ecc:	f107 070c 	add.w	r7, r7, #12
 8001ed0:	46bd      	mov	sp, r7
 8001ed2:	bc80      	pop	{r7}
 8001ed4:	4770      	bx	lr
 8001ed6:	bf00      	nop

08001ed8 <ADC_GetCalibrationStatus>:
 8001ed8:	b480      	push	{r7}
 8001eda:	b085      	sub	sp, #20
 8001edc:	af00      	add	r7, sp, #0
 8001ede:	6078      	str	r0, [r7, #4]
 8001ee0:	f04f 0300 	mov.w	r3, #0
 8001ee4:	73fb      	strb	r3, [r7, #15]
 8001ee6:	687b      	ldr	r3, [r7, #4]
 8001ee8:	689b      	ldr	r3, [r3, #8]
 8001eea:	f003 0304 	and.w	r3, r3, #4
 8001eee:	2b00      	cmp	r3, #0
 8001ef0:	d003      	beq.n	8001efa <ADC_GetCalibrationStatus+0x22>
 8001ef2:	f04f 0301 	mov.w	r3, #1
 8001ef6:	73fb      	strb	r3, [r7, #15]
 8001ef8:	e002      	b.n	8001f00 <ADC_GetCalibrationStatus+0x28>
 8001efa:	f04f 0300 	mov.w	r3, #0
 8001efe:	73fb      	strb	r3, [r7, #15]
 8001f00:	7bfb      	ldrb	r3, [r7, #15]
 8001f02:	4618      	mov	r0, r3
 8001f04:	f107 0714 	add.w	r7, r7, #20
 8001f08:	46bd      	mov	sp, r7
 8001f0a:	bc80      	pop	{r7}
 8001f0c:	4770      	bx	lr
 8001f0e:	bf00      	nop

08001f10 <ADC_RegularChannelConfig>:
 8001f10:	b480      	push	{r7}
 8001f12:	b085      	sub	sp, #20
 8001f14:	af00      	add	r7, sp, #0
 8001f16:	6078      	str	r0, [r7, #4]
 8001f18:	70f9      	strb	r1, [r7, #3]
 8001f1a:	70ba      	strb	r2, [r7, #2]
 8001f1c:	707b      	strb	r3, [r7, #1]
 8001f1e:	f04f 0300 	mov.w	r3, #0
 8001f22:	60fb      	str	r3, [r7, #12]
 8001f24:	f04f 0300 	mov.w	r3, #0
 8001f28:	60bb      	str	r3, [r7, #8]
 8001f2a:	78fb      	ldrb	r3, [r7, #3]
 8001f2c:	2b09      	cmp	r3, #9
 8001f2e:	d927      	bls.n	8001f80 <ADC_RegularChannelConfig+0x70>
 8001f30:	687b      	ldr	r3, [r7, #4]
 8001f32:	68db      	ldr	r3, [r3, #12]
 8001f34:	60fb      	str	r3, [r7, #12]
 8001f36:	78fa      	ldrb	r2, [r7, #3]
 8001f38:	4613      	mov	r3, r2
 8001f3a:	ea4f 0343 	mov.w	r3, r3, lsl #1
 8001f3e:	189b      	adds	r3, r3, r2
 8001f40:	f1a3 031e 	sub.w	r3, r3, #30
 8001f44:	f04f 0207 	mov.w	r2, #7
 8001f48:	fa02 f303 	lsl.w	r3, r2, r3
 8001f4c:	60bb      	str	r3, [r7, #8]
 8001f4e:	68bb      	ldr	r3, [r7, #8]
 8001f50:	ea6f 0303 	mvn.w	r3, r3
 8001f54:	68fa      	ldr	r2, [r7, #12]
 8001f56:	4013      	ands	r3, r2
 8001f58:	60fb      	str	r3, [r7, #12]
 8001f5a:	7879      	ldrb	r1, [r7, #1]
 8001f5c:	78fa      	ldrb	r2, [r7, #3]
 8001f5e:	4613      	mov	r3, r2
 8001f60:	ea4f 0343 	mov.w	r3, r3, lsl #1
 8001f64:	189b      	adds	r3, r3, r2
 8001f66:	f1a3 031e 	sub.w	r3, r3, #30
 8001f6a:	fa01 f303 	lsl.w	r3, r1, r3
 8001f6e:	60bb      	str	r3, [r7, #8]
 8001f70:	68fa      	ldr	r2, [r7, #12]
 8001f72:	68bb      	ldr	r3, [r7, #8]
 8001f74:	4313      	orrs	r3, r2
 8001f76:	60fb      	str	r3, [r7, #12]
 8001f78:	687b      	ldr	r3, [r7, #4]
 8001f7a:	68fa      	ldr	r2, [r7, #12]
 8001f7c:	60da      	str	r2, [r3, #12]
 8001f7e:	e022      	b.n	8001fc6 <ADC_RegularChannelConfig+0xb6>
 8001f80:	687b      	ldr	r3, [r7, #4]
 8001f82:	691b      	ldr	r3, [r3, #16]
 8001f84:	60fb      	str	r3, [r7, #12]
 8001f86:	78fa      	ldrb	r2, [r7, #3]
 8001f88:	4613      	mov	r3, r2
 8001f8a:	ea4f 0343 	mov.w	r3, r3, lsl #1
 8001f8e:	189b      	adds	r3, r3, r2
 8001f90:	f04f 0207 	mov.w	r2, #7
 8001f94:	fa02 f303 	lsl.w	r3, r2, r3
 8001f98:	60bb      	str	r3, [r7, #8]
 8001f9a:	68bb      	ldr	r3, [r7, #8]
 8001f9c:	ea6f 0303 	mvn.w	r3, r3
 8001fa0:	68fa      	ldr	r2, [r7, #12]
 8001fa2:	4013      	ands	r3, r2
 8001fa4:	60fb      	str	r3, [r7, #12]
 8001fa6:	7879      	ldrb	r1, [r7, #1]
 8001fa8:	78fa      	ldrb	r2, [r7, #3]
 8001faa:	4613      	mov	r3, r2
 8001fac:	ea4f 0343 	mov.w	r3, r3, lsl #1
 8001fb0:	189b      	adds	r3, r3, r2
 8001fb2:	fa01 f303 	lsl.w	r3, r1, r3
 8001fb6:	60bb      	str	r3, [r7, #8]
 8001fb8:	68fa      	ldr	r2, [r7, #12]
 8001fba:	68bb      	ldr	r3, [r7, #8]
 8001fbc:	4313      	orrs	r3, r2
 8001fbe:	60fb      	str	r3, [r7, #12]
 8001fc0:	687b      	ldr	r3, [r7, #4]
 8001fc2:	68fa      	ldr	r2, [r7, #12]
 8001fc4:	611a      	str	r2, [r3, #16]
 8001fc6:	78bb      	ldrb	r3, [r7, #2]
 8001fc8:	2b06      	cmp	r3, #6
 8001fca:	d827      	bhi.n	800201c <ADC_RegularChannelConfig+0x10c>
 8001fcc:	687b      	ldr	r3, [r7, #4]
 8001fce:	6b5b      	ldr	r3, [r3, #52]	; 0x34
 8001fd0:	60fb      	str	r3, [r7, #12]
 8001fd2:	78bb      	ldrb	r3, [r7, #2]
 8001fd4:	f103 32ff 	add.w	r2, r3, #4294967295
 8001fd8:	4613      	mov	r3, r2
 8001fda:	ea4f 0383 	mov.w	r3, r3, lsl #2
 8001fde:	189b      	adds	r3, r3, r2
 8001fe0:	f04f 021f 	mov.w	r2, #31
 8001fe4:	fa02 f303 	lsl.w	r3, r2, r3
 8001fe8:	60bb      	str	r3, [r7, #8]
 8001fea:	68bb      	ldr	r3, [r7, #8]
 8001fec:	ea6f 0303 	mvn.w	r3, r3
 8001ff0:	68fa      	ldr	r2, [r7, #12]
 8001ff2:	4013      	ands	r3, r2
 8001ff4:	60fb      	str	r3, [r7, #12]
 8001ff6:	78f9      	ldrb	r1, [r7, #3]
 8001ff8:	78bb      	ldrb	r3, [r7, #2]
 8001ffa:	f103 32ff 	add.w	r2, r3, #4294967295
 8001ffe:	4613      	mov	r3, r2
 8002000:	ea4f 0383 	mov.w	r3, r3, lsl #2
 8002004:	189b      	adds	r3, r3, r2
 8002006:	fa01 f303 	lsl.w	r3, r1, r3
 800200a:	60bb      	str	r3, [r7, #8]
 800200c:	68fa      	ldr	r2, [r7, #12]
 800200e:	68bb      	ldr	r3, [r7, #8]
 8002010:	4313      	orrs	r3, r2
 8002012:	60fb      	str	r3, [r7, #12]
 8002014:	687b      	ldr	r3, [r7, #4]
 8002016:	68fa      	ldr	r2, [r7, #12]
 8002018:	635a      	str	r2, [r3, #52]	; 0x34
 800201a:	e051      	b.n	80020c0 <ADC_RegularChannelConfig+0x1b0>
 800201c:	78bb      	ldrb	r3, [r7, #2]
 800201e:	2b0c      	cmp	r3, #12
 8002020:	d827      	bhi.n	8002072 <ADC_RegularChannelConfig+0x162>
 8002022:	687b      	ldr	r3, [r7, #4]
 8002024:	6b1b      	ldr	r3, [r3, #48]	; 0x30
 8002026:	60fb      	str	r3, [r7, #12]
 8002028:	78ba      	ldrb	r2, [r7, #2]
 800202a:	4613      	mov	r3, r2
 800202c:	ea4f 0383 	mov.w	r3, r3, lsl #2
 8002030:	189b      	adds	r3, r3, r2
 8002032:	f1a3 0323 	sub.w	r3, r3, #35	; 0x23
 8002036:	f04f 021f 	mov.w	r2, #31
 800203a:	fa02 f303 	lsl.w	r3, r2, r3
 800203e:	60bb      	str	r3, [r7, #8]
 8002040:	68bb      	ldr	r3, [r7, #8]
 8002042:	ea6f 0303 	mvn.w	r3, r3
 8002046:	68fa      	ldr	r2, [r7, #12]
 8002048:	4013      	ands	r3, r2
 800204a:	60fb      	str	r3, [r7, #12]
 800204c:	78f9      	ldrb	r1, [r7, #3]
 800204e:	78ba      	ldrb	r2, [r7, #2]
 8002050:	4613      	mov	r3, r2
 8002052:	ea4f 0383 	mov.w	r3, r3, lsl #2
 8002056:	189b      	adds	r3, r3, r2
 8002058:	f1a3 0323 	sub.w	r3, r3, #35	; 0x23
 800205c:	fa01 f303 	lsl.w	r3, r1, r3
 8002060:	60bb      	str	r3, [r7, #8]
 8002062:	68fa      	ldr	r2, [r7, #12]
 8002064:	68bb      	ldr	r3, [r7, #8]
 8002066:	4313      	orrs	r3, r2
 8002068:	60fb      	str	r3, [r7, #12]
 800206a:	687b      	ldr	r3, [r7, #4]
 800206c:	68fa      	ldr	r2, [r7, #12]
 800206e:	631a      	str	r2, [r3, #48]	; 0x30
 8002070:	e026      	b.n	80020c0 <ADC_RegularChannelConfig+0x1b0>
 8002072:	687b      	ldr	r3, [r7, #4]
 8002074:	6adb      	ldr	r3, [r3, #44]	; 0x2c
 8002076:	60fb      	str	r3, [r7, #12]
 8002078:	78ba      	ldrb	r2, [r7, #2]
 800207a:	4613      	mov	r3, r2
 800207c:	ea4f 0383 	mov.w	r3, r3, lsl #2
 8002080:	189b      	adds	r3, r3, r2
 8002082:	f1a3 0341 	sub.w	r3, r3, #65	; 0x41
 8002086:	f04f 021f 	mov.w	r2, #31
 800208a:	fa02 f303 	lsl.w	r3, r2, r3
 800208e:	60bb      	str	r3, [r7, #8]
 8002090:	68bb      	ldr	r3, [r7, #8]
 8002092:	ea6f 0303 	mvn.w	r3, r3
 8002096:	68fa      	ldr	r2, [r7, #12]
 8002098:	4013      	ands	r3, r2
 800209a:	60fb      	str	r3, [r7, #12]
 800209c:	78f9      	ldrb	r1, [r7, #3]
 800209e:	78ba      	ldrb	r2, [r7, #2]
 80020a0:	4613      	mov	r3, r2
 80020a2:	ea4f 0383 	mov.w	r3, r3, lsl #2
 80020a6:	189b      	adds	r3, r3, r2
 80020a8:	f1a3 0341 	sub.w	r3, r3, #65	; 0x41
 80020ac:	fa01 f303 	lsl.w	r3, r1, r3
 80020b0:	60bb      	str	r3, [r7, #8]
 80020b2:	68fa      	ldr	r2, [r7, #12]
 80020b4:	68bb      	ldr	r3, [r7, #8]
 80020b6:	4313      	orrs	r3, r2
 80020b8:	60fb      	str	r3, [r7, #12]
 80020ba:	687b      	ldr	r3, [r7, #4]
 80020bc:	68fa      	ldr	r2, [r7, #12]
 80020be:	62da      	str	r2, [r3, #44]	; 0x2c
 80020c0:	f107 0714 	add.w	r7, r7, #20
 80020c4:	46bd      	mov	sp, r7
 80020c6:	bc80      	pop	{r7}
 80020c8:	4770      	bx	lr
 80020ca:	bf00      	nop

080020cc <NVIC_PriorityGroupConfig>:
 80020cc:	b480      	push	{r7}
 80020ce:	b083      	sub	sp, #12
 80020d0:	af00      	add	r7, sp, #0
 80020d2:	6078      	str	r0, [r7, #4]
 80020d4:	f44f 436d 	mov.w	r3, #60672	; 0xed00
 80020d8:	f2ce 0300 	movt	r3, #57344	; 0xe000
 80020dc:	687a      	ldr	r2, [r7, #4]
 80020de:	f042 62be 	orr.w	r2, r2, #99614720	; 0x5f00000
 80020e2:	f442 2220 	orr.w	r2, r2, #655360	; 0xa0000
 80020e6:	60da      	str	r2, [r3, #12]
 80020e8:	f107 070c 	add.w	r7, r7, #12
 80020ec:	46bd      	mov	sp, r7
 80020ee:	bc80      	pop	{r7}
 80020f0:	4770      	bx	lr
 80020f2:	bf00      	nop

080020f4 <NVIC_Init>:
 80020f4:	b480      	push	{r7}
 80020f6:	b087      	sub	sp, #28
 80020f8:	af00      	add	r7, sp, #0
 80020fa:	6078      	str	r0, [r7, #4]
 80020fc:	f04f 0300 	mov.w	r3, #0
 8002100:	617b      	str	r3, [r7, #20]
 8002102:	f04f 0300 	mov.w	r3, #0
 8002106:	613b      	str	r3, [r7, #16]
 8002108:	f04f 030f 	mov.w	r3, #15
 800210c:	60fb      	str	r3, [r7, #12]
 800210e:	687b      	ldr	r3, [r7, #4]
 8002110:	78db      	ldrb	r3, [r3, #3]
 8002112:	2b00      	cmp	r3, #0
 8002114:	d047      	beq.n	80021a6 <NVIC_Init+0xb2>
 8002116:	f44f 436d 	mov.w	r3, #60672	; 0xed00
 800211a:	f2ce 0300 	movt	r3, #57344	; 0xe000
 800211e:	68db      	ldr	r3, [r3, #12]
 8002120:	ea6f 0303 	mvn.w	r3, r3
 8002124:	f403 63e0 	and.w	r3, r3, #1792	; 0x700
 8002128:	ea4f 2313 	mov.w	r3, r3, lsr #8
 800212c:	617b      	str	r3, [r7, #20]
 800212e:	697b      	ldr	r3, [r7, #20]
 8002130:	f1c3 0304 	rsb	r3, r3, #4
 8002134:	613b      	str	r3, [r7, #16]
 8002136:	697b      	ldr	r3, [r7, #20]
 8002138:	68fa      	ldr	r2, [r7, #12]
 800213a:	fa22 f303 	lsr.w	r3, r2, r3
 800213e:	60fb      	str	r3, [r7, #12]
 8002140:	687b      	ldr	r3, [r7, #4]
 8002142:	785b      	ldrb	r3, [r3, #1]
 8002144:	461a      	mov	r2, r3
 8002146:	693b      	ldr	r3, [r7, #16]
 8002148:	fa02 f303 	lsl.w	r3, r2, r3
 800214c:	617b      	str	r3, [r7, #20]
 800214e:	687b      	ldr	r3, [r7, #4]
 8002150:	789b      	ldrb	r3, [r3, #2]
 8002152:	461a      	mov	r2, r3
 8002154:	68fb      	ldr	r3, [r7, #12]
 8002156:	4013      	ands	r3, r2
 8002158:	697a      	ldr	r2, [r7, #20]
 800215a:	4313      	orrs	r3, r2
 800215c:	617b      	str	r3, [r7, #20]
 800215e:	697b      	ldr	r3, [r7, #20]
 8002160:	ea4f 1303 	mov.w	r3, r3, lsl #4
 8002164:	617b      	str	r3, [r7, #20]
 8002166:	f44f 4361 	mov.w	r3, #57600	; 0xe100
 800216a:	f2ce 0300 	movt	r3, #57344	; 0xe000
 800216e:	687a      	ldr	r2, [r7, #4]
 8002170:	7812      	ldrb	r2, [r2, #0]
 8002172:	4611      	mov	r1, r2
 8002174:	697a      	ldr	r2, [r7, #20]
 8002176:	b2d2      	uxtb	r2, r2
 8002178:	185b      	adds	r3, r3, r1
 800217a:	f883 2300 	strb.w	r2, [r3, #768]	; 0x300
 800217e:	f44f 4361 	mov.w	r3, #57600	; 0xe100
 8002182:	f2ce 0300 	movt	r3, #57344	; 0xe000
 8002186:	687a      	ldr	r2, [r7, #4]
 8002188:	7812      	ldrb	r2, [r2, #0]
 800218a:	ea4f 1252 	mov.w	r2, r2, lsr #5
 800218e:	b2d2      	uxtb	r2, r2
 8002190:	6879      	ldr	r1, [r7, #4]
 8002192:	7809      	ldrb	r1, [r1, #0]
 8002194:	f001 011f 	and.w	r1, r1, #31
 8002198:	f04f 0001 	mov.w	r0, #1
 800219c:	fa00 f101 	lsl.w	r1, r0, r1
 80021a0:	f843 1022 	str.w	r1, [r3, r2, lsl #2]
 80021a4:	e014      	b.n	80021d0 <NVIC_Init+0xdc>
 80021a6:	f44f 4361 	mov.w	r3, #57600	; 0xe100
 80021aa:	f2ce 0300 	movt	r3, #57344	; 0xe000
 80021ae:	687a      	ldr	r2, [r7, #4]
 80021b0:	7812      	ldrb	r2, [r2, #0]
 80021b2:	ea4f 1252 	mov.w	r2, r2, lsr #5
 80021b6:	b2d2      	uxtb	r2, r2
 80021b8:	6879      	ldr	r1, [r7, #4]
 80021ba:	7809      	ldrb	r1, [r1, #0]
 80021bc:	f001 011f 	and.w	r1, r1, #31
 80021c0:	f04f 0001 	mov.w	r0, #1
 80021c4:	fa00 f101 	lsl.w	r1, r0, r1
 80021c8:	f102 0220 	add.w	r2, r2, #32
 80021cc:	f843 1022 	str.w	r1, [r3, r2, lsl #2]
 80021d0:	f107 071c 	add.w	r7, r7, #28
 80021d4:	46bd      	mov	sp, r7
 80021d6:	bc80      	pop	{r7}
 80021d8:	4770      	bx	lr
 80021da:	bf00      	nop
 80021dc:	00002530 	.word	0x00002530
 80021e0:	00253031 	.word	0x00253031
 80021e4:	00253032 	.word	0x00253032
 80021e8:	00253033 	.word	0x00253033
 80021ec:	00253034 	.word	0x00253034
 80021f0:	00253035 	.word	0x00253035
 80021f4:	00253036 	.word	0x00253036
 80021f8:	00253037 	.word	0x00253037
 80021fc:	00253038 	.word	0x00253038
 8002200:	00253039 	.word	0x00253039
 8002204:	25303031 	.word	0x25303031
 8002208:	00000000 	.word	0x00000000
 800220c:	65776f50 	.word	0x65776f50
 8002210:	00000072 	.word	0x00000072
 8002214:	75706d49 	.word	0x75706d49
 8002218:	7365736c 	.word	0x7365736c
 800221c:	00000000 	.word	0x00000000
 8002220:	72727543 	.word	0x72727543
 8002224:	00746e65 	.word	0x00746e65
 8002228:	3a706d49 	.word	0x3a706d49
 800222c:	00000000 	.word	0x00000000
 8002230:	63726550 	.word	0x63726550
 8002234:	0000003a 	.word	0x0000003a
 8002238:	63726550 	.word	0x63726550
 800223c:	73746e65 	.word	0x73746e65
 8002240:	00000000 	.word	0x00000000
